c__builtin__
set
p0
((lp1
V3AKml1p_wallpapers
p2
aVK3deD8W_wallpapers
p3
aVwaDBLKc_wallpapers
p4
aViZHBSpd_wallpapers
p5
aVkwBIMFt_wallpapers
p6
aVECQ5Xau_wallpapers
p7
aVMOnaCEs_wallpapers
p8
aV51hOw5a_spaceporn
p9
aV7IhqiuO
p10
aVvwrMeUd_wallpapers
p11
aVLPa5Rjv_wallpapers
p12
aVKcl2AGu_SkyPorn
p13
aVJc3XLMA_wallpapers
p14
aV3Eb6zJe_wallpapers
p15
aVBMGjioD_SkyPorn
p16
aVp8DWyt9_wallpapers
p17
aV1H67DBR_SkyPorn
p18
aV0bD4PDK_wallpapers
p19
aVyp3CpKN_wallpapers
p20
aV7Wohc8o_wallpapers
p21
aVlRxql0B_wallpapers
p22
aVeoRbYMh_wallpapers
p23
aVUwFHFG7_wallpapers
p24
aVH5im1eH_wallpapers
p25
aVh2wIsXU_wallpapers
p26
aVTUAT0Cc_AnimalPorn
p27
aVeMfrYhZ_wallpapers
p28
aVcPN8hgY_wallpapers
p29
aVXKirc17_wallpapers
p30
aVBQ4h5NF_wallpapers
p31
aVLYTnARM_wallpapers
p32
aVmkDROHI_waterporn
p33
aVsU3S3IG_wallpapers
p34
aVxmyMboi_SkyPorn
p35
aVT0ZNQ7g_wallpapers
p36
aV5lPGexZ_wallpapers
p37
aVSEBQIwE_AbandonedPorn
p38
aV31LLxhe_wallpapers
p39
aVKB9Upz9_wallpapers
p40
aVoW0QWdQ_wallpapers
p41
aV3nipYzY_wallpapers
p42
aVSiMCZHn_wallpapers
p43
aVTwjbBtX_wallpapers
p44
aVC92lhPc
p45
aVYEIAIUS_wallpapers
p46
aVgzsIkkR_wallpapers
p47
aVagMff8z
p48
aVHN2fuKX_wallpapers
p49
aVhMgBaqX_wallpapers
p50
aV2iXQBIP_wallpapers
p51
aVkLnwMDj_wallpapers
p52
aVhaAEw1m_wallpapers
p53
aVVl75XUn_wallpapers
p54
aVsA8R9z0_spaceporn
p55
aVOnKIwi2_wallpapers
p56
aV2dEKdny_wallpapers
p57
aVgHAQw4N_wallpapers
p58
aVWAxwrSp_wallpapers
p59
aVfHPhiSD_wallpapers
p60
aV7iRH6uN_wallpapers
p61
aV4qgDtMs_wallpapers
p62
aVdcFEzs0_waterporn
p63
aV916Pjjc_wallpapers
p64
aVtYXf1m0_wallpapers
p65
aVgjTHTdz_wallpapers
p66
aVIC9oguq_wallpapers
p67
aV4qz03MZ_wallpapers
p68
aV6NJSSqJ_wallpapers
p69
aVOPHBnnn_wallpapers
p70
aVwxbHiMd_wallpapers
p71
aVae961t7_wallpapers
p72
aVj758Ym3_wallpapers
p73
aVmrT3Do3_SkyPorn
p74
aVMDCnY9p_SkyPorn
p75
aVnao48G4_wallpapers
p76
aVc43oJJL
p77
aVWuguGGB_wallpapers
p78
aV5jQZaUL_wallpapers
p79
aVN6LJUOb
p80
aVatMNI61_SkyPorn
p81
aVhXVOyLa_wallpapers
p82
aVtnWBFhB_wallpapers
p83
aVE1S6JgA_wallpapers
p84
aVFSRPMS6_RoomPorn
p85
aVT0OJKAv_wallpapers
p86
aVp0We3A5_SkyPorn
p87
aVEWHGu7m_wallpapers
p88
aVdcliZXN_wallpapers
p89
aVjI8nMEx_wallpapers
p90
aVMHwxRUM_SkyPorn
p91
aVcfDL2yn_wallpapers
p92
aV4r2Ip53_SkyPorn
p93
aVnc8Dxd4_wallpapers
p94
aVUgXk7cF_wallpapers
p95
aVTPKDkMH_SkyPorn
p96
aV1G1hklZ_wallpapers
p97
aVxmFIYAC_wallpapers
p98
aVwXV1vAz
p99
aVvHwebGc_wallpapers
p100
aVAUkp5Km_wallpapers
p101
aViGf6lw6_wallpapers
p102
aVvV57JK0_wallpapers
p103
aVLoUbpcG_wallpapers
p104
aVYQhKuBY_wallpapers
p105
aV2oKmNKO_wallpapers
p106
aViI4Kw31_wallpapers
p107
aVFrO0HuZ_wallpapers
p108
aVGXQ14MG_wallpapers
p109
aVUvvkFo8_wallpapers
p110
aVFM8pwIA_waterporn
p111
aVznSHPp8_waterporn
p112
aVVq2WqNM_BotanicalPorn
p113
aVVMZKMjI_wallpapers
p114
aV2gxc2vT_SkyPorn
p115
aVFy12AKh_wallpapers
p116
aVH0iBHZI
p117
aV6GHMq9j_wallpapers
p118
aV9HD4wWz_wallpapers
p119
aV4nA8CH8_wallpapers
p120
aVq5TXrLo_waterporn
p121
aVbSqk8Ns_spaceporn
p122
aVf8rZCFE_wallpapers
p123
aVJk4Pr33_wallpapers
p124
aVBZBQSe7_wallpapers
p125
aVQaqg22g_wallpapers
p126
aVuIRD3FW
p127
aV8Q7kW33_wallpapers
p128
aVolR3Ivi_wallpapers
p129
aVJmBuV54_SkyPorn
p130
aVvtw6n9P_wallpapers
p131
aVcYSwH0D_wallpapers
p132
aVbBgttr4_wallpapers
p133
aVBnAQX42_wallpapers
p134
aVGU4Xupf_wallpapers
p135
aV32Pgbn8_wallpapers
p136
aVT3TtP3G_wallpapers
p137
aVWeWnoTY_HistoryPorn
p138
aVBnqvEon_wallpapers
p139
aVA6exWzv_wallpapers
p140
aVilJ3Pb3_wallpapers
p141
aVdoq7ktH_wallpapers
p142
aVC9lyxCe_AlbumArtPorn
p143
aVWdfkcqj_wallpapers
p144
aVpXavI3G_wallpapers
p145
aVwVO1E5u_wallpapers
p146
aVduUTCno_wallpapers
p147
aVT9VPcHM_wallpapers
p148
aVCD9KUKZ_wallpapers
p149
aVoLtUb9V_wallpapers
p150
aVTx6nqev_SkyPorn
p151
aVzk6rgUj_wallpapers
p152
aVQ4KZOk1_wallpapers
p153
aV5tuTSUt_SkyPorn
p154
aVVfst1le_wallpapers
p155
aVbsbLj0d_wallpapers
p156
aVrCWYDtK_waterporn
p157
aVzJK9g0N_waterporn
p158
aVZwJ1yky_wallpapers
p159
aV6YHtW7u_wallpapers
p160
aVMC9gTFx_SkyPorn
p161
aV4xuOrDH_wallpapers
p162
aVWutHkBl_wallpapers
p163
aVWhrxudL_wallpapers
p164
aVPrc7Wmk_MilitaryPorn
p165
aVAa7eFPn_wallpapers
p166
aVXe10OJb
p167
aVTlRProd_wallpapers
p168
aV3Rjfm3G_waterporn
p169
aVOEqRW9H
p170
aVgQkLOZH_wallpapers
p171
aVaBvbYE9_wallpapers
p172
aVSP1yGTa_waterporn
p173
aVvlke46c_wallpapers
p174
aVH7BX55I_wallpapers
p175
aVh0i54Is_SkyPorn
p176
aVWKkwytZ_wallpapers
p177
aV3IoPLxK_wallpapers
p178
aVgZOXiyd_wallpapers
p179
aVkOxOZUS_MilitaryPorn
p180
aV2u8SDZW_wallpapers
p181
aV6TnJLaa_wallpapers
p182
aVN21kLHf_wallpapers
p183
aVjQ5JRdx_wallpapers
p184
aV4OygVJe_wallpapers
p185
aVDCs7JFE_wallpapers
p186
aV7RbzFMQ_SkyPorn
p187
aVHK72AwG_AnimalPorn
p188
aVNfYjiZz_SkyPorn
p189
aVhPiQa6l_wallpapers
p190
aVxVv9QZj_wallpapers
p191
aVzgJY5J7_wallpapers
p192
aVp3rSC5Y_wallpapers
p193
aVc5J534P_wallpapers
p194
aVFvl4LBG_wallpapers
p195
aVO05bDqA_BotanicalPorn
p196
aV1ueO7lK_wallpapers
p197
aV9uq0lzW_wallpapers
p198
aVv3jA2oK
p199
aVannEgk2_spaceporn
p200
aVMZz7Sty_wallpapers
p201
aV0Yyv6tZ_wallpapers
p202
aVzC34vws_SkyPorn
p203
aV0DYQF9e_waterporn
p204
aVIMqRiy3_wallpapers
p205
aVOYLpduR_spaceporn
p206
aVwGNL7db_spaceporn
p207
aVrQTGkvV_wallpapers
p208
aVzSdv3iO_MilitaryPorn
p209
aV7oKIhAQ_wallpapers
p210
aVNDWyJzM_wallpapers
p211
aVPZFxW9B_wallpapers
p212
aVBQRnhsr_wallpapers
p213
aV5KxGvJr_wallpapers
p214
aVjJgotrG_wallpapers
p215
aVx5KufxW_wallpapers
p216
aVhIB5Ia9_wallpapers
p217
aVRIPmIYy_wallpapers
p218
aVviOv8bu_BotanicalPorn
p219
aVxhjvvj9_wallpapers
p220
aVFGBwS3z_wallpapers
p221
aV6eIWRpX_wallpapers
p222
aVmBIO3sc_waterporn
p223
aV9m79o7R_wallpapers
p224
aVFe8CaXT_wallpapers
p225
aVr1byoMx_wallpapers
p226
aV9PzO6SO_DesignPorn
p227
aVK8a3xcg_wallpapers
p228
aVpCaqAkW_wallpapers
p229
aVWrtBajU_wallpapers
p230
aVWqiI4WG_FirePorn
p231
aV8jJCqEP_wallpapers
p232
aVF2wnvNo_wallpapers
p233
aV70kgChS_waterporn
p234
aVOU2pF4d_wallpapers
p235
aVJhK7kgb_wallpapers
p236
aVrKl2RHY_wallpapers
p237
aVdpWOeNl_wallpapers
p238
aVOXrUzip_wallpapers
p239
aVJUYvPbn_wallpapers
p240
aV5VBDql3_wallpapers
p241
aVSVRmfEK_wallpapers
p242
aVac8D9ZX_wallpapers
p243
aVoIQxmPI_wallpapers
p244
aVYENwKkg_waterporn
p245
aVfl9nuBA_wallpapers
p246
aVJUcW6Fi_wallpapers
p247
aVNIyGedp_wallpapers
p248
aVHmjZGs6_wallpapers
p249
aVEy5o54E_wallpapers
p250
aVpVpnDv4_spaceporn
p251
aVvIeMGFt_SkyPorn
p252
aVFSRPMS6
p253
aVJs2ZQ7D_wallpapers
p254
aVprypDJN_wallpapers
p255
aVeFqQoUx_wallpapers
p256
aVWEz3uvD_wallpapers
p257
aVFwPD4dd_wallpapers
p258
aVqqygcue_wallpapers
p259
aVhnEsI2y_spaceporn
p260
aVFq14Fsk_wallpapers
p261
aVaCFKlqR_wallpapers
p262
aV8IKCVQ3_wallpapers
p263
aVI9WC6Eg_wallpapers
p264
aVJXlGsTQ_wallpapers
p265
aVUsj4oAV_wallpapers
p266
aVTmLGsP3_GameWalls
p267
aV9lPYsTu_wallpapers
p268
aVpvRAtPc_SkyPorn
p269
aVkAy3gp9_MilitaryPorn
p270
aV5jAxpGJ_wallpapers
p271
aVNKhVycZ
p272
aV0vU1gb5_wallpapers
p273
aVr2scMCA_wallpapers
p274
aVaON3FT3_wallpapers
p275
aVmqYq5ii_wallpapers
p276
aVU7mTTEi_BotanicalPorn
p277
aVAxhjvdh_spaceporn
p278
aVgrCVClf_wallpapers
p279
aV46WVg44_wallpapers
p280
aVsvb4nZs_wallpapers
p281
aVkGgWxAZ_wallpapers
p282
aVEGsHiQS_wallpapers
p283
aVFNUIAg3_wallpapers
p284
aVnOHGNY6_wallpapers
p285
aVAP6oH0f_wallpapers
p286
aVdzLX6I4_wallpapers
p287
aVxyVfUm0_wallpapers
p288
aVBBZ2KOw_wallpapers
p289
aVTMQ2Gky_wallpapers
p290
aVQqUyml4_BotanicalPorn
p291
aVq8NkVHS_wallpapers
p292
aVEJhGVfs_wallpapers
p293
aVunrhTl6_wallpapers
p294
aVqAkKcdA_SkyPorn
p295
aV4QOaiwD_wallpapers
p296
aVinhTLib_VillagePorn
p297
aV0S49I6E_wallpapers
p298
aVP4kCV5q
p299
aVFMvLUX5_SkyPorn
p300
aVup8cvhd_wallpapers
p301
aV6HL70AM_wallpapers
p302
aVHK4Rn3C
p303
aVjiGkG_DesignPorn
p304
aVrHh0urW_QuotesPorn
p305
aVZM5jUkB_wallpapers
p306
aVe6SLf7x_AbandonedPorn
p307
aVwZdpiCP_wallpapers
p308
aV1ozklNq_wallpapers
p309
aV1BxQlJp_wallpapers
p310
aVuXsuwzr_wallpapers
p311
aVtb4bvyX_wallpapers
p312
aVIKslbF7_wallpapers
p313
aV95QbIis_wallpapers
p314
aVf1w12ua_wallpapers
p315
aVkh1TsQl_wallpapers
p316
aVlPMRhLc_BotanicalPorn
p317
aVkpPx7F3_wallpapers
p318
aVtKNba99_wallpapers
p319
aV1wV3pzQ_wallpapers
p320
aV3TKZ0yp_wallpapers
p321
aVi29ojXy_wallpapers
p322
aVaDKgt0I_wallpapers
p323
aVwzmLygc_BotanicalPorn
p324
aVqx6htxC_wallpapers
p325
aVZ45gQQS_wallpapers
p326
aVJ1yNJF8_wallpapers
p327
aVcYclu2A_wallpapers
p328
aVFeLV99F_wallpapers
p329
aVdRdZ0Ck_wallpapers
p330
aVEZhib92_wallpapers
p331
aVRqKvCZk_waterporn
p332
aVrErkigj_CityPorn
p333
aVNWotbTk_SkyPorn
p334
aVOogK01C_wallpapers
p335
aVyD1hA1u_wallpapers
p336
aVbt8v7ft_wallpapers
p337
aVtVmTz8A_wallpapers
p338
aVPNX8NCx_wallpapers
p339
aVvd8sucw_wallpapers
p340
aVeuokjhn_wallpapers
p341
aVThZwC9P_spaceporn
p342
aViGzjLZf_wallpapers
p343
aVMvLlKtg_wallpapers
p344
aVoJG9Mw8_BotanicalPorn
p345
aV3qcmwd5_wallpapers
p346
aVBVVYkcs_wallpapers
p347
aVpJOKgZ7_wallpapers
p348
aV1YB2HrI_SkyPorn
p349
aVIYmYw9V_wallpapers
p350
aVm4vC2zK_wallpapers
p351
aVBHDSA92_wallpapers
p352
aV5uHibvw_wallpapers
p353
aVSFtkrpg_wallpapers
p354
aVE9NahWn_wallpapers
p355
aVIdIRhnn_wallpapers
p356
aVrItNuy3
p357
aV9mfMrst
p358
aVk1gHKwb_wallpapers
p359
aVGRLauzE_SkyPorn
p360
aVS9cwnRv_wallpapers
p361
aV0qNLnxU_wallpapers
p362
aVY4SPreX_wallpapers
p363
aVVclryMf_wallpapers
p364
aV1aGbxgZ_wallpapers
p365
aV2AmJwuh_BotanicalPorn
p366
aV42kZUVX_wallpapers
p367
aVf03ZsCS_wallpapers
p368
aVNJc5RAH_wallpapers
p369
aVIS9hPDa_wallpapers
p370
aVPJa1K7I_wallpapers
p371
aVrz0c94V_SkyPorn
p372
aVxlTWsyQ_SkyPorn
p373
aVGdLW5gr_wallpapers
p374
aVgkKOm87_wallpapers
p375
aVGEsBnEw_wallpapers
p376
aVncmCWrx_wallpapers
p377
aVlDGiUcY
p378
aV148Gubl_wallpapers
p379
aVvwFFQs9_SkyPorn
p380
aVMKDfsDK_wallpapers
p381
aVztwAIdW_SkyPorn
p382
aVo4BeEuT
p383
aVUPVpQZg_wallpapers
p384
aVz2D2Tld_wallpapers
p385
aVz0CBgvm_wallpapers
p386
aVJn6jJ6U_wallpapers
p387
aVNFTEKxC_wallpapers
p388
aVjsjyoRN_wallpapers
p389
aV1skSZDS_wallpapers
p390
aVvNdZrgo_wallpapers
p391
aV21oJbEj_SkyPorn
p392
aVWUUxHFT_wallpapers
p393
aVlizl9Vf_FirePorn
p394
aVG3MLihm_wallpapers
p395
aVCkfvWEw_wallpapers
p396
aV0SgpOWA_wallpapers
p397
aVaDlZaeF_QuotesPorn
p398
aVgLhB6DH_wallpapers
p399
aV6kIp8ik_wallpapers
p400
aVaaQZThd
p401
aVcGcUOyr_wallpapers
p402
aVHYmfLHj_wallpapers
p403
aVeHe1oEr_wallpapers
p404
aV0CXUMp3_wallpapers
p405
aVN2lL4Nh_wallpapers
p406
aVSdlu69p_wallpapers
p407
aVCAiBHxc_wallpapers
p408
aV73tTgLy_FirePorn
p409
aVVbKC6aq_wallpapers
p410
aVr1HALhI
p411
aVhcLwdS7_wallpapers
p412
aVgHC6e32_wallpapers
p413
aVKcUwgRQ_wallpapers
p414
aVDhP6LpU_wallpapers
p415
aVGyUHw5K
p416
aVtZEcMfL_waterporn
p417
aVuvRJ46U_wallpapers
p418
aVqGjkt9O_wallpapers
p419
aVzzh0rrf_wallpapers
p420
aVZxHsnBE_DestructionPorn
p421
aVjz1MMBq_wallpapers
p422
aVSXPaN78_wallpapers
p423
aV339PeVy
p424
aVO0j2VTE_wallpapers
p425
aV6LbTFV2_wallpapers
p426
aVMGFOfnn_wallpapers
p427
aVUg9d4M9_wallpapers
p428
aVv085SLt_wallpapers
p429
aVN4KmRep_wallpapers
p430
aVUyXFYt4_wallpapers
p431
aVwSILdYJ_SkyPorn
p432
aVQKZkkuD_SkyPorn
p433
aVKMwFSwk_wallpapers
p434
aVWRuCnhB_wallpapers
p435
aVaEdDS7c_spaceporn
p436
aVYWBvhpu_wallpapers
p437
aVaU465Ob_wallpapers
p438
aVtjOKsw1_wallpapers
p439
aV02iEiCh_wallpapers
p440
aVw8kV1vq_spaceporn
p441
aVHDHKLVv_wallpapers
p442
aVfEYcOJA_wallpapers
p443
aVhVktVlg_wallpapers
p444
aVrZDGTSD_wallpapers
p445
aVYmym0h4_wallpapers
p446
aVrDQ6BEA_wallpapers
p447
aVl6JMLQv
p448
aVjrEd9_CityPorn
p449
aV1iYvgJV_waterporn
p450
aV5zzqTxq_wallpapers
p451
aV49w1yQL_wallpapers
p452
aVwqGtxRp_wallpapers
p453
aVuCkmkga_wallpapers
p454
aVS6PhQGc_wallpapers
p455
aVs2qbp2K_wallpapers
p456
aVCWfZsRE_wallpapers
p457
aVMiXb4e8_wallpapers
p458
aVSWzyDW1_wallpapers
p459
aVNcw6EfO_wallpapers
p460
aVQCNNS6g_wallpapers
p461
aV8irUWrl_wallpapers
p462
aVMO7Gh0L_wallpapers
p463
aVugFkY5A_GameWalls
p464
aVMGDwqXq_wallpapers
p465
aVECKbMZh_wallpapers
p466
aVaIo3KZQ_wallpapers
p467
aVfrUggkU_wallpapers
p468
aVpMP6kEV_wallpapers
p469
aVJ3SjyYL_wallpapers
p470
aVYWIMDLI_waterporn
p471
aVWKQfcLJ_wallpapers
p472
aVvtTfXhO_wallpapers
p473
aVwtuWMxb_wallpapers
p474
aVJXAQS5y_wallpapers
p475
aVEZiaK4L_wallpapers
p476
aVpMZnyXA_GameWalls
p477
aVDxyYwfV_wallpapers
p478
aVF6jyWP6_wallpapers
p479
aVWpqzIa9_wallpapers
p480
aVlCAZjLx_wallpapers
p481
aVKmFpkNT_wallpapers
p482
aV0CNbs0n_wallpapers
p483
aVD27cDVc_wallpapers
p484
aVIlvJ99f_wallpapers
p485
aVkcWM4gP_wallpapers
p486
aVqUrihUz_wallpapers
p487
aV0q6yRez_wallpapers
p488
aVndVdIUI
p489
aVBwBFSVu_wallpapers
p490
aVC7sl1gg_waterporn
p491
aVw3FT79z
p492
aVhdbVa3M_wallpapers
p493
aVHUpNjQW_SkyPorn
p494
aV0t9bKYb_wallpapers
p495
aV9fKISjj_wallpapers
p496
aVlBGi9cY_wallpapers
p497
aVicOYjGu_wallpapers
p498
aVr5BTQv5_spaceporn
p499
aVO634LgY_wallpapers
p500
aVFPR4nTY_wallpapers
p501
aVXJjscVV_wallpapers
p502
aV48zsVvT_wallpapers
p503
aVrMlemKL_wallpapers
p504
aVZSUiet3
p505
aV1zefCO0_BotanicalPorn
p506
aVkIoH6XV_DestructionPorn
p507
aVIalQmlM_wallpapers
p508
aV8jX5xFq_SkyPorn
p509
aVAG9KFdU_wallpapers
p510
aVtnbPDMd_GameWalls
p511
aVoQ4wBR0_wallpapers
p512
aVfNyx1vj_wallpapers
p513
aVFzBJjdO_wallpapers
p514
aVFaJu5Yi_wallpapers
p515
aV1ylWlTZ_wallpapers
p516
aVmes8ilv_wallpapers
p517
aV7ZzuxuI_wallpapers
p518
aVRcmadlX_wallpapers
p519
aVe32lONL_wallpapers
p520
aVpf7XdLd_wallpapers
p521
aVU6qZjcu_wallpapers
p522
aVOAsZwoi
p523
aVAjLqXJJ_wallpapers
p524
aVKFaFEQq_wallpapers
p525
aV8ytwMRm_wallpapers
p526
aVEEfHoES_wallpapers
p527
aVMhnwFLM_BotanicalPorn
p528
aVW86Y65x_wallpapers
p529
aV8td0vVh_SkyPorn
p530
aV5EDbVif_wallpapers
p531
aVmPH5RTR_wallpapers
p532
aV9wEY780_wallpapers
p533
aVAVwhN9R_wallpapers
p534
aVthRbb8x_wallpapers
p535
aVzVCgS5D_wallpapers
p536
aVGOH8q5H_wallpapers
p537
aVShsuIAl_GameWalls
p538
aVvyH7B01_GameWalls
p539
aV5SkJYtE_wallpapers
p540
aVXbwiIIR_wallpapers
p541
aVqxqeSIH_wallpapers
p542
aVKMGfPd7_SkyPorn
p543
aV8ULG3TJ_DestructionPorn
p544
aVzvpIoyL
p545
aVzRvbk45_wallpapers
p546
aVlNgBptR_wallpapers
p547
aVV9Vnr0k_wallpapers
p548
aVZ66lKmn_SkyPorn
p549
aV6jR1MhI_wallpapers
p550
aVWzNvx0s_wallpapers
p551
aVffFS6AS_wallpapers
p552
aVjxkTAj9_wallpapers
p553
aVomjnKPe_wallpapers
p554
aVH1oowH3_SkyPorn
p555
aVlPAfbxF_wallpapers
p556
aVZDfZC54_wallpapers
p557
aVuiF6UKe_wallpapers
p558
aV8AJtGtO_wallpapers
p559
aVsRMWhaY_wallpapers
p560
aVSwJVP7W_SkyPorn
p561
aVsujYk59_wallpapers
p562
aVsrTqpb3_wallpapers
p563
aVqjtQYI3_SkyPorn
p564
aV5tFvuUo_wallpapers
p565
aVnUqSG4W_GeekPorn
p566
aVeLPvr01_wallpapers
p567
aVFBnACyn_wallpapers
p568
aVifoNgbc_wallpapers
p569
aV8OceltU_wallpapers
p570
aVysoGhxI_wallpapers
p571
aVDmcH4cq_SkyPorn
p572
aVOruPmTV_wallpapers
p573
aVuE7KXk6_spaceporn
p574
aVbut1M4O_wallpapers
p575
aVnYQ4oD4_wallpapers
p576
aVzYdT1if_SkyPorn
p577
aV8DEL211_wallpapers
p578
aVJTJNBCE_wallpapers
p579
aVGGkK9vL_wallpapers
p580
aVp6TUahO_waterporn
p581
aVGtZP2Y1_wallpapers
p582
aVxBsAV6D_wallpapers
p583
aVGKwQwWP_wallpapers
p584
aV6YhSt5F_SkyPorn
p585
aVLDTiiYm_wallpapers
p586
aVmfhzNJs_wallpapers
p587
aVZRx02w2_SkyPorn
p588
aVgV3mEXE_AbandonedPorn
p589
aVbH82AQ5_wallpapers
p590
aV5L6jyP2
p591
aVZpMUipS_wallpapers
p592
aVeg6jYUw_waterporn
p593
aVvz6eGTM_wallpapers
p594
aVSCsFC3n_wallpapers
p595
aViAcbPF0_wallpapers
p596
aVYtL1VZd_SkyPorn
p597
aV6zifyHV_wallpapers
p598
aV1XmRY3I_wallpapers
p599
aVAROmUUQ_wallpapers
p600
aVM0uK1oI_wallpapers
p601
aVr1h7leT_wallpapers
p602
aVuBtT7B7_wallpapers
p603
aVgyAhxqf_wallpapers
p604
aVkAq4CNc_wallpapers
p605
aVEWnQgKz_wallpapers
p606
aVYsCfJtx_wallpapers
p607
aVawEFM4f_wallpapers
p608
aVsIfhJC7_wallpapers
p609
aVfckzvp1_wallpapers
p610
aVB9u578S_wallpapers
p611
aVuwG3MGS_wallpapers
p612
aVyzPlgoj_wallpapers
p613
aV8hWlvWC_DesignPorn
p614
aVbAp0bOg_wallpapers
p615
aV2WSruwn_wallpapers
p616
aVIE4j9ps
p617
aVNtXAc3b_wallpapers
p618
aVO47fDzU_spaceporn
p619
aVNJjhoD6_SkyPorn
p620
aVQJ48Ve7_wallpapers
p621
aVtAiUbr7_wallpapers
p622
aVMKuDme6_wallpapers
p623
aVv8ttpDz_wallpapers
p624
aVv7bQVZm_wallpapers
p625
aVd5iox63_BotanicalPorn
p626
aV7xVaxN5_wallpapers
p627
aVtxFia4t_wallpapers
p628
aVbbFoUgL_wallpapers
p629
aVwwBFx1b_wallpapers
p630
aVpPUBUdA_BotanicalPorn
p631
aVVQsNgYj_wallpapers
p632
aVruAsT3C_wallpapers
p633
aVo7rI4uy_waterporn
p634
aV2ZHUOve_wallpapers
p635
aV16P399h_SkyPorn
p636
aVna5ZBaS_wallpapers
p637
aVsvdT3Dn_wallpapers
p638
aVkiL7eMf_wallpapers
p639
aVAQPDAbN_wallpapers
p640
aVZC94OoO_GameWalls
p641
aVDI3AiRy_wallpapers
p642
aV3LPNnz1_wallpapers
p643
aVWgGwW1c_EarthPorn
p644
aVv9V5nZg_wallpapers
p645
aVAtDfWiY_wallpapers
p646
aVstka49i_wallpapers
p647
aVtDbP99N_wallpapers
p648
aVyKnkqdH_wallpapers
p649
aVKN4DJbg_wallpapers
p650
aVudOG9cW
p651
aVgpWW2ZF_BotanicalPorn
p652
aVhhcPGfw_wallpapers
p653
aVPCP51kk_wallpapers
p654
aVdutWuBr_SkyPorn
p655
aVxcDFX1Y_waterporn
p656
aV3Ihq4No_wallpapers
p657
aVxaZGTlR_MilitaryPorn
p658
aVMxLoGh7_wallpapers
p659
aVhIBiwH2_wallpapers
p660
aVFneY1B3_wallpapers
p661
aVB0P0Qdx_wallpapers
p662
aV5j0PIb6_GeekPorn
p663
aVcUhYCR6_wallpapers
p664
aVrhesmpi_wallpapers
p665
aVPlCPl3X_SkyPorn
p666
aVoiKNpGk_wallpapers
p667
aVu2NHcNj_wallpapers
p668
aVCtWBikS_wallpapers
p669
aVefKHUXY_wallpapers
p670
aVkIC6ERZ_wallpapers
p671
aVV2jmIYI_wallpapers
p672
aVFYaX04Y_wallpapers
p673
aVEjYBQCJ_wallpapers
p674
aVT6OL0ch_wallpapers
p675
aVlwPdTnW_MilitaryPorn
p676
aVzh74IgS_wallpapers
p677
aVyCpjkMQ_wallpapers
p678
aVbH4Kt_MilitaryPorn
p679
aVmHhRT2t_wallpapers
p680
aVDBScQVd_wallpapers
p681
aVrVqq6CD_wallpapers
p682
aVo6NXw2i_wallpapers
p683
aVomUoiak_CityPorn
p684
aVoPR1mJL_wallpapers
p685
aVldY33yR_waterporn
p686
aVkAfGMI6_wallpapers
p687
aVycSaS
p688
aVKLuZO5s_wallpapers
p689
aVtrqjANR_wallpapers
p690
aVmtGWTea_wallpapers
p691
aVHMAVXkk_SkyPorn
p692
aVmZd6bN8_wallpapers
p693
aVcemySkq_wallpapers
p694
aVqRcdjqR_wallpapers
p695
aV04AxnKc_wallpapers
p696
aVTa7uXdY
p697
aVEACFijc_wallpapers
p698
aV0hPVQnj_wallpapers
p699
aVg3bDlVs_wallpapers
p700
aVx2EZa91_waterporn
p701
aV1N0pYbn_wallpapers
p702
aVdN3qTV0_wallpapers
p703
aVitC47gr_wallpapers
p704
aVVjT7Ngk_wallpapers
p705
aVAoojVvj_wallpapers
p706
aVGeZmbJA_wallpapers
p707
aV3RFSB27_wallpapers
p708
aVGtPPDmN_wallpapers
p709
aVhm2iBiL_wallpapers
p710
aVYzLGVPd_wallpapers
p711
aVxeNUFjw_wallpapers
p712
aV49Onz1C_wallpapers
p713
aVeZeAWAM_spaceporn
p714
aVYJSVZrT_wallpapers
p715
aVZs0WeNf_spaceporn
p716
aVLhvsH9K_wallpapers
p717
aVLgkdsP9_wallpapers
p718
aV76Iy8yZ_wallpapers
p719
aVFgE8Imz_wallpapers
p720
aVGT7oIIL_wallpapers
p721
aVHMMpFhB_waterporn
p722
aVbgPaxhJ_SkyPorn
p723
aVQtWB70x_spaceporn
p724
aVHK4Rn3C_CityPorn
p725
aVvCSWJpm_wallpapers
p726
aVZQ5l6WU_wallpapers
p727
aVcvUqUoj_wallpapers
p728
aVf7RZCZo_wallpapers
p729
aVQUsJsY2_wallpapers
p730
aVZAJaBwi_spaceporn
p731
aVIriKkHV_wallpapers
p732
aVqMPawvA_wallpapers
p733
aVU5ZZ3ih_wallpapers
p734
aV29Ju5Bj_wallpapers
p735
aVZuXpPHV_wallpapers
p736
aVZBWxSZo_wallpapers
p737
aVuEtAWln_SkyPorn
p738
aVg7VwRH9_wallpapers
p739
aVrAp6QgY_wallpapers
p740
aVWVwGh1I_waterporn
p741
aVQ2Cuvef_wallpapers
p742
aVIVVi5OI_wallpapers
p743
aVxrNK5XA_wallpapers
p744
aVkfNIESl_wallpapers
p745
aVhrkoih8_wallpapers
p746
aVCM7sXsX
p747
aVRIGddOx_wallpapers
p748
aVrUqJQH9_wallpapers
p749
aVUycwx20_SkyPorn
p750
aVjeW7PX6_wallpapers
p751
aVjKW8KOf_wallpapers
p752
aVRBOuEx2_wallpapers
p753
aVbHvycKh_wallpapers
p754
aVkTtnjiS_wallpapers
p755
aVgeRE9o7_wallpapers
p756
aVQ8odeWt_wallpapers
p757
aV1J8mHBE_EarthPorn
p758
aVnjMWECZ_wallpapers
p759
aVMKs8iA4_wallpapers
p760
aVPy72BWJ_wallpapers
p761
aVArMVsNa_waterporn
p762
aVdok2KJ0_wallpapers
p763
aVtW2ocd7_wallpapers
p764
aVzpnrxLH_BotanicalPorn
p765
aVjhyOFFG_wallpapers
p766
aVNOxr6d3_wallpapers
p767
aVdpscc19
p768
aVaBDwTI5_spaceporn
p769
aVxycwx0h
p770
aV9ogdVOU_wallpapers
p771
aV6Iv9tS5_wallpapers
p772
aVkvYGoD8
p773
aVnqDojJI_spaceporn
p774
aVNJWEhWH_wallpapers
p775
aVuRqNJGO_wallpapers
p776
aVq4FCfjy_wallpapers
p777
aVUgSknE2_wallpapers
p778
aVs0zWEVx_SkyPorn
p779
aVhdCQTB5_wallpapers
p780
aVziOR5DK_wallpapers
p781
aV69F8j3T_wallpapers
p782
aVJT8wh64_wallpapers
p783
aVwmQm1OH_wallpapers
p784
aVsJbah8q_wallpapers
p785
aV3mfFu0n_wallpapers
p786
aV4FSQ5Nt_wallpapers
p787
aV02E5NSY_waterporn
p788
aVbQceQfo_waterporn
p789
aVWWaOZpT_MilitaryPorn
p790
aVRYOGYNw_wallpapers
p791
aVTQ1OGL5_wallpapers
p792
aVmrBiEcQ_wallpapers
p793
aVlBlZeX2_SkyPorn
p794
aV3lLjDV4_wallpapers
p795
aVEVJV7jN_wallpapers
p796
aVT6qjguJ_wallpapers
p797
aV81pAiLu_wallpapers
p798
aVzQd6je7_wallpapers
p799
aVf3Adh0z_wallpapers
p800
aVB8rUHVt_wallpapers
p801
aV4gdcscj_wallpapers
p802
aVayLnpy5_DesignPorn
p803
aVkixbgjr_wallpapers
p804
aVVzdsT5I_MilitaryPorn
p805
aVbzHUmRv_wallpapers
p806
aVymzi9wb_wallpapers
p807
aVvOV2LcY_wallpapers
p808
aVOAxMC9i_wallpapers
p809
aVEPg5kBJ_wallpapers
p810
aV0h2wszS_wallpapers
p811
aVC9lyxCe
p812
aVioOdJ6O_RoomPorn
p813
aVFlVmptM_wallpapers
p814
aVPvy0two_wallpapers
p815
aVhBGa45Z_wallpapers
p816
aVAJBVPnA_wallpapers
p817
aVUXYJaki_wallpapers
p818
aVJ5hHYue_wallpapers
p819
aVWeNq4Wf_wallpapers
p820
aVZNAZY93_wallpapers
p821
aVcPuya1v_SkyPorn
p822
aVYewvvQr_wallpapers
p823
aVXDP2NWn_wallpapers
p824
aV5JzxZc6_wallpapers
p825
aVsyhVq88_wallpapers
p826
aVKgP2YLj_wallpapers
p827
aV4kxPyXr_SkyPorn
p828
aV5gq9oKg_wallpapers
p829
aVkBla8k1_wallpapers
p830
aVXj947jZ_SkyPorn
p831
aVyvvJQcE_wallpapers
p832
aVqOxdxWa_wallpapers
p833
aVkGpvYOd_SkyPorn
p834
aVJ7bFhSZ_wallpapers
p835
aVPmI4Ufh_spaceporn
p836
aVb2TloZr_wallpapers
p837
aVErlKn95_wallpapers
p838
aVaab6Gjt_wallpapers
p839
aVkvYGoD8_AnimalPorn
p840
aVgSO8Jfr_SkyPorn
p841
aVhvE2KEW_wallpapers
p842
aVFXBdS1q_wallpapers
p843
aViGdPB0d_EarthPorn
p844
aVMrzgwHI_wallpapers
p845
aVlSXsMkE_MilitaryPorn
p846
aVbwXAc8r_wallpapers
p847
aVwTyomp3_DestructionPorn
p848
aVystJU4Y_wallpapers
p849
aVQmf87kF_wallpapers
p850
aVwfZIAUQ_SkyPorn
p851
aVt11VMgE_wallpapers
p852
aVdBR6WiD_wallpapers
p853
aVAGWHnX0_wallpapers
p854
aVGjyHudu_wallpapers
p855
aVh018TUC_MachinePorn
p856
aVGU5CDuL_wallpapers
p857
aVUDcc54c_wallpapers
p858
aV6Ae6rFT_wallpapers
p859
aVXzpD8ep_wallpapers
p860
aVkBH6lvK_wallpapers
p861
aVwS1SH1v_wallpapers
p862
aVyAtxVjO_wallpapers
p863
aVjGkxQGW_wallpapers
p864
aV5f8HTw0_wallpapers
p865
aVW9JBRnP_wallpapers
p866
aVkLdjGAc_wallpapers
p867
aV3OOicmu_SkyPorn
p868
aVUkL3oHv_wallpapers
p869
aVCUTwEn5_wallpapers
p870
aVABGzWlF_GameWalls
p871
aVuW8gLO9_wallpapers
p872
aVwa4A5gA_wallpapers
p873
aVCCyvjs6_wallpapers
p874
aVlfesqa6_SkyPorn
p875
aVXE53ZEX_wallpapers
p876
aVULS9ERX_wallpapers
p877
aVzxAEg65_SkyPorn
p878
aV1SOIoNp_FirePorn
p879
aVU9Yxn5N_wallpapers
p880
aVPzI03gn_wallpapers
p881
aVFcZFsk4_wallpapers
p882
aVyCrr1Qy_wallpapers
p883
aVnPOrYsQ_wallpapers
p884
aVldrezah_wallpapers
p885
aVNlYy89l_wallpapers
p886
aVz5yc2L5_wallpapers
p887
aVIm5LZ6n_wallpapers
p888
aVhe3yBkP_wallpapers
p889
aVxqetKgi_wallpapers
p890
aV9MSBVBo_wallpapers
p891
aVzMmvOn8_wallpapers
p892
aVLM905LN_wallpapers
p893
aVjtxCnDz_wallpapers
p894
aVJTQD0Rd_wallpapers
p895
aVaTiVXBR_wallpapers
p896
aVqf0UQ75_wallpapers
p897
aVt28kndJ_waterporn
p898
aVDORn1jd_wallpapers
p899
aVb49CfcK_spaceporn
p900
aV0QfhjUN_wallpapers
p901
aVcG9eXMk_wallpapers
p902
aVJ6QQ3uL_wallpapers
p903
aVxpBqJyt_spaceporn
p904
aVMoY7j00_wallpapers
p905
aVkfixeYn_wallpapers
p906
aVkcX56qT_wallpapers
p907
aVvaNnI64_wallpapers
p908
aVwKf4yLY_wallpapers
p909
aVCUwwNc0_wallpapers
p910
aVKmOAZUG_SkyPorn
p911
aVPevt4d7_wallpapers
p912
aVevwaOqR_wallpapers
p913
aViPINqxg_wallpapers
p914
aVIzn6l5Z
p915
aVNJM8JWh_wallpapers
p916
aVZH2YP0F_MilitaryPorn
p917
aVyG7AnLv_wallpapers
p918
aVmOhTWYx_wallpapers
p919
aVABPfpIW_wallpapers
p920
aVyZx6EBL_wallpapers
p921
aVRYswSZF_wallpapers
p922
aVP8ZhRjI_wallpapers
p923
aVtlMljF7_wallpapers
p924
aVtDhcPNm_BotanicalPorn
p925
aVrFawNkJ_wallpapers
p926
aVlCnPIgH_wallpapers
p927
aV7a9yuwo_SkyPorn
p928
aVyN5SL6N_wallpapers
p929
aVYuG1Vyc_BotanicalPorn
p930
aV3dbIB2I_wallpapers
p931
aVud4Ru8X_wallpapers
p932
aVLncGd2P_GameWalls
p933
aVA7spT7v_wallpapers
p934
aVNCjKrs1_wallpapers
p935
aVO0VNZek_wallpapers
p936
aVd8hYCqH
p937
aVpkoC3o4_wallpapers
p938
aVeu7N4qN_wallpapers
p939
aVlbu4XHb_wallpapers
p940
aVb3Ej3Bk_wallpapers
p941
aVjCnUP0Z_wallpapers
p942
aVP6unbwN_wallpapers
p943
aV8Cqyw9s_spaceporn
p944
aVRtch5Qq_wallpapers
p945
aVEo52CF0_spaceporn
p946
aVOURNZ0V_wallpapers
p947
aV5LAr2BA_wallpapers
p948
aVZoNQSnd_waterporn
p949
aVk1m4BUv_wallpapers
p950
aVdPviIkl
p951
aVhXOLhhK_wallpapers
p952
aV6K0bhDd_wallpapers
p953
aVaPJ1cr3_BotanicalPorn
p954
aV6J3T6UT_wallpapers
p955
aVHnqSNw6_waterporn
p956
aVTL6niDu_wallpapers
p957
aVruwPXR9_wallpapers
p958
aVKJcb3F2_BotanicalPorn
p959
aVZ72kSp3_wallpapers
p960
aVPZ2GDYn_wallpapers
p961
aVlBQhwDz_wallpapers
p962
aVOHYyl7p_spaceporn
p963
aV6Br6gGg_wallpapers
p964
aVsV6s5qm_wallpapers
p965
aVzlOI4Oc_wallpapers
p966
aVLbEdMD5_wallpapers
p967
aVM8JoReA_wallpapers
p968
aVF9n72zS_wallpapers
p969
aVjt5n2AE_spaceporn
p970
aVMLFBCtX
p971
aVcguRm7E_wallpapers
p972
aVYnomHGv_waterporn
p973
aVapCm4OV
p974
aVaNR4rjK_wallpapers
p975
aV84UpUZS_wallpapers
p976
aVpUaA5Oo_wallpapers
p977
aVX2JaMX9_wallpapers
p978
aVFiYeCy8_wallpapers
p979
aVbny3oZD_wallpapers
p980
aVEKol36M_BotanicalPorn
p981
aVjFFEoU5_wallpapers
p982
aVfaLuqmL
p983
aVFBl3zTG_wallpapers
p984
aVw3UdbY4_wallpapers
p985
aVbLPE3Vc_wallpapers
p986
aVn42IlhT_wallpapers
p987
aVVOabqcn_waterporn
p988
aVqFdNagd
p989
aVP1fdC2T
p990
aVCMO7bXc_wallpapers
p991
aV7990yia_wallpapers
p992
aVcXaHP9X_wallpapers
p993
aVuFXzfA8_BotanicalPorn
p994
aVfPvzlXR_wallpapers
p995
aVW8IQuOf_wallpapers
p996
aVYuvARkv_wallpapers
p997
aV6hcmYGn_SkyPorn
p998
aVtT3KvuZ_wallpapers
p999
aVDeDpY8G_wallpapers
p1000
aVppdrGMt_SkyPorn
p1001
aV50O8oQr_spaceporn
p1002
aV3mrLFk6_wallpapers
p1003
aVd7XMBUI_wallpapers
p1004
aVttf42j6_wallpapers
p1005
aVwRV1lHk_wallpapers
p1006
aVoE3Dzq0_wallpapers
p1007
aVioOdJ6O
p1008
aVTuu4dJK_wallpapers
p1009
aVOMpILNc_waterporn
p1010
aVReLX5RU_wallpapers
p1011
aVRQ6bwFl_wallpapers
p1012
aVxyjg0Kd_wallpapers
p1013
aVzEKVqro_wallpapers
p1014
aV98NwO6l_BotanicalPorn
p1015
aVZSUiet3_MapPorn
p1016
aVFAhZAla_spaceporn
p1017
aVUjZWLiF_wallpapers
p1018
aVcDP60qE
p1019
aVfNhaIc0_wallpapers
p1020
aVIdYV9cd_wallpapers
p1021
aVllQuflH_wallpapers
p1022
aVg8zSGsa_wallpapers
p1023
aVdU2Rjah_wallpapers
p1024
aVZYw6Vbq_wallpapers
p1025
aVTFzPBWe_SkyPorn
p1026
aVJMRb4T7_wallpapers
p1027
aVQfTO23S_wallpapers
p1028
aVWCrZMQd_wallpapers
p1029
aVFZbbh21_wallpapers
p1030
aVPzveDjY_wallpapers
p1031
aVEJl9zhV_wallpapers
p1032
aVn4hefpZ_DesignPorn
p1033
aV2djlcA3_wallpapers
p1034
aV96IblKD_wallpapers
p1035
aVQTk5zCV_wallpapers
p1036
aVk8U4I3u_wallpapers
p1037
aVuTiNf8b_wallpapers
p1038
aVYvkpkpz_wallpapers
p1039
aVd6Zrrln_wallpapers
p1040
aVOc9eSNk_wallpapers
p1041
aVSLXbEoE_wallpapers
p1042
aVolV5E3m_waterporn
p1043
aVxOv5RhC_waterporn
p1044
aV97dDwnQ_wallpapers
p1045
aVYBB4GjC_GeekPorn
p1046
aVCOXi3J5_wallpapers
p1047
aVePRQmiQ_wallpapers
p1048
aVMeTSuio_wallpapers
p1049
aVndVdIUI_AnimalPorn
p1050
aVdpwH08X_wallpapers
p1051
aVazxCE5B_wallpapers
p1052
aVa5ttc0L_wallpapers
p1053
aViTzmLHC_wallpapers
p1054
aVr1D8NYE_wallpapers
p1055
aVf1JSYRm
p1056
aVLwFp9g6_wallpapers
p1057
aVUFWwLog_SkyPorn
p1058
aVHrdLH5S_wallpapers
p1059
aVP141hfa_wallpapers
p1060
aV2851a3F_wallpapers
p1061
aVRCN6Lb2_wallpapers
p1062
aVcFdfU7e_wallpapers
p1063
aVoCY512J_wallpapers
p1064
aVb64FFgy_FirePorn
p1065
aV4i1raSI_wallpapers
p1066
aVcNMJuFF_wallpapers
p1067
aVvuwDMHu_wallpapers
p1068
aVdXQnEWd_wallpapers
p1069
aVzvpIoyL_HistoryPorn
p1070
aV10bQRU9_wallpapers
p1071
aVlFvgBJz_wallpapers
p1072
aVKHOS2Tz_wallpapers
p1073
aVzDGVkLC_wallpapers
p1074
aV7ScMT1s_wallpapers
p1075
aVw3FT79z_AbandonedPorn
p1076
aV3EObYVR_wallpapers
p1077
aV5s9Rjyu_wallpapers
p1078
aVgNqwCrZ_wallpapers
p1079
aVQLToD97_wallpapers
p1080
aVhz5rvg8_wallpapers
p1081
aVTE5fGxV_wallpapers
p1082
aVfZtCktG_spaceporn
p1083
aVigcdvWu_SkyPorn
p1084
aVpMBL46Y_wallpapers
p1085
aVZEdhgax_wallpapers
p1086
aVdEtdkWm_wallpapers
p1087
aVp43OXZZ_wallpapers
p1088
aVq2KNCVK_wallpapers
p1089
aVHUgVfve_wallpapers
p1090
aV47pjdFn_wallpapers
p1091
aVv068b9O
p1092
aVfQpKOp0_waterporn
p1093
aVMw9SwGd_wallpapers
p1094
aVghjmNmV_wallpapers
p1095
aVpRqFF63
p1096
aVtAZqdVy_wallpapers
p1097
aVLIADqxt_spaceporn
p1098
aVXGGcdcf_SkyPorn
p1099
aVv2Wf33G_wallpapers
p1100
aVhEYntkU_SkyPorn
p1101
aVyeAhxx2_wallpapers
p1102
aVFm8oEvn_wallpapers
p1103
aVqN2lz0t_wallpapers
p1104
aVbiNOxzP_wallpapers
p1105
aVHvsWl28_wallpapers
p1106
aVFAEUyIr
p1107
aV7FtmwuG_wallpapers
p1108
aVWbapgV7_wallpapers
p1109
aV9Od37sg_wallpapers
p1110
aVdifUE7X_wallpapers
p1111
aVvgqCi1Z_wallpapers
p1112
aVFpIl2n8_BotanicalPorn
p1113
aVrVPfWt7_spaceporn
p1114
aVu7rt8tQ_waterporn
p1115
aVBTsKawY_SkyPorn
p1116
aVYlEWuBq_wallpapers
p1117
aVod4QZ8C_wallpapers
p1118
aVFNhVq3a_wallpapers
p1119
aVFBnCk1p_wallpapers
p1120
aV23qpjpp
p1121
aVrPGK0Ah_waterporn
p1122
aVmIO1xNP_wallpapers
p1123
aVpCC8lBC_SkyPorn
p1124
aVd9F4hSI_wallpapers
p1125
aVRO53aFz_wallpapers
p1126
aV3VYC2Km_wallpapers
p1127
aVsBBTJh9_wallpapers
p1128
aVa9r1g4O_wallpapers
p1129
aVdjmiv75_wallpapers
p1130
aVLuENnXm_wallpapers
p1131
aVauuKbxH_wallpapers
p1132
aVujXzr7e_SkyPorn
p1133
aVWq8etWR_wallpapers
p1134
aVpfwTh09_SkyPorn
p1135
aVMXl2f95_wallpapers
p1136
aVqp8hg0o_wallpapers
p1137
aVTw9aFbr_SkyPorn
p1138
aVvvtRro3_SkyPorn
p1139
aVV1G67mf_wallpapers
p1140
aV2FQew8h_BotanicalPorn
p1141
aVDINkOHG_wallpapers
p1142
aVXNqNI5b_wallpapers
p1143
aVwEVXKXK_wallpapers
p1144
aVvsVz2Mn
p1145
aVrhAAQJu_SkyPorn
p1146
aVVEcBbVy_wallpapers
p1147
aVpdnouF6_SkyPorn
p1148
aVlUt0dBz_wallpapers
p1149
aVjLbczID_wallpapers
p1150
aVz2vbLEH_BotanicalPorn
p1151
aVnHd9vAI_wallpapers
p1152
aV4RgGLAK_wallpapers
p1153
aVZ0UCNA9_wallpapers
p1154
aV5ye2hIr_wallpapers
p1155
aVd0IdKBP_wallpapers
p1156
aVMpXvsho_wallpapers
p1157
aVshlofuW_MilitaryPorn
p1158
aVSZhlbji_waterporn
p1159
aVtHkwQue_wallpapers
p1160
aVpc2zYkq_wallpapers
p1161
aVz8LobsW_waterporn
p1162
aVi2Cl3X3
p1163
aV4Z9tWHr_wallpapers
p1164
aVxCOWYup_wallpapers
p1165
aVgBZv52Z_wallpapers
p1166
aVYl5Wx3v_wallpapers
p1167
aVcui1VOX_wallpapers
p1168
aVIhrXmbn_wallpapers
p1169
aVw2vAa2C_wallpapers
p1170
aV6mZ622F_wallpapers
p1171
aVS6WriR2_wallpapers
p1172
aVYQE6tDi_SkyPorn
p1173
aVCGDbpr4_wallpapers
p1174
aVKAf1Hda_wallpapers
p1175
aVepuP5XZ_waterporn
p1176
aVEkNBabR_wallpapers
p1177
aVxReNPND_SkyPorn
p1178
aVN2GbtOY_wallpapers
p1179
aVkPSZnn4_wallpapers
p1180
aVgXJNIdv
p1181
aVWPT3rjK_wallpapers
p1182
aVGM5RMAG_waterporn
p1183
aVUfiwNzG_wallpapers
p1184
aVlLWDrNU_wallpapers
p1185
aVCoTXJjl_wallpapers
p1186
aVFsvgyvR_wallpapers
p1187
aVYevQPD7_wallpapers
p1188
aV0XBcUq1_MilitaryPorn
p1189
aVlsqowUl_wallpapers
p1190
aVtrIrps4_wallpapers
p1191
aVmVHC3L7_wallpapers
p1192
aVppGyBST_wallpapers
p1193
aVt4bDRpd_wallpapers
p1194
aVrW5rK9g_wallpapers
p1195
aVMiN4ImH_wallpapers
p1196
aV6s86FrH_wallpapers
p1197
aVYrUzEAF_wallpapers
p1198
aVE8SO6i3_wallpapers
p1199
aVqZcbLyj_wallpapers
p1200
aV69i2kLA_waterporn
p1201
aVeuCBRyo_BotanicalPorn
p1202
aVbWiTek6_wallpapers
p1203
aVk9WulgU_wallpapers
p1204
aVZLAIdaD_wallpapers
p1205
aVD9O32ef_wallpapers
p1206
aVKEWcoGG
p1207
aVOwQLPZB_wallpapers
p1208
aVEOdTfo1_wallpapers
p1209
aVYNj94DG_wallpapers
p1210
aVcFxbF5m_wallpapers
p1211
aVrJEG1HN_wallpapers
p1212
aV7KInljg_waterporn
p1213
aVuDkITjf_wallpapers
p1214
aVqP7qIlh_wallpapers
p1215
aVwa79xt9_wallpapers
p1216
aVIVhut0w_SkyPorn
p1217
aVWjN5zQi_wallpapers
p1218
aVJ2Iyula_wallpapers
p1219
aVl8KpnvU_spaceporn
p1220
aVc7wTRKX_wallpapers
p1221
aVklHWBju
p1222
aVsyQmfK5_wallpapers
p1223
aVhdYM8XM_wallpapers
p1224
aVQ6qq9sg_wallpapers
p1225
aVw5Wy5eY_wallpapers
p1226
aVPV0zoXe_wallpapers
p1227
aVb3E6ZbD_wallpapers
p1228
aVlu1lnIt_BotanicalPorn
p1229
aVPN9wt8z_wallpapers
p1230
aVvOHazIy_MilitaryPorn
p1231
aVfZ5xJ3Q_wallpapers
p1232
aV7DZoci5_SkyPorn
p1233
aVIsFxNjX_wallpapers
p1234
aV9YD9gau_wallpapers
p1235
aVOEqRW9H_MilitaryPorn
p1236
aVpVgLo82_wallpapers
p1237
aVx50aUP2_wallpapers
p1238
aVYO1JiG4_waterporn
p1239
aVYWlG0v9_wallpapers
p1240
aVRHg4eUF_wallpapers
p1241
aVGIlDVYA_wallpapers
p1242
aV59kmvtX_waterporn
p1243
aVndjU3v3_wallpapers
p1244
aVJOkNMeD_wallpapers
p1245
aVvsXwTXm_wallpapers
p1246
aVvbqUy3D_wallpapers
p1247
aVfw9eVR4_wallpapers
p1248
aVkOGktmv_GameWalls
p1249
aVUYBHYNL_wallpapers
p1250
aVWsBdyf1_wallpapers
p1251
aVWr3HqpB_wallpapers
p1252
aVC6xNnPZ_wallpapers
p1253
aVnwqHT3H_SkyPorn
p1254
aVVGwidoe_DestructionPorn
p1255
aVbZ3eHjM_MilitaryPorn
p1256
aVItcvC5W_wallpapers
p1257
aV6odaHuj_wallpapers
p1258
aVkv8Povg_BotanicalPorn
p1259
aVzhUYtoo_wallpapers
p1260
aVABGfwOU_wallpapers
p1261
aVU1MzgyF_wallpapers
p1262
aVM7r69RB_QuotesPorn
p1263
aVxgVW1eI_wallpapers
p1264
aVvZGmlkZ_wallpapers
p1265
aVpnv3tQW_wallpapers
p1266
aVCIcdsvP_wallpapers
p1267
aVuA1NSv3_wallpapers
p1268
aVP3AV7pJ_wallpapers
p1269
aVgSZMA89_SkyPorn
p1270
aVuTyu15A_wallpapers
p1271
aV7DmvIcy_wallpapers
p1272
aV0hEOiPF_wallpapers
p1273
aV1ifWjEB_wallpapers
p1274
aVd6yW4Zt_wallpapers
p1275
aVgAY1ZpZ_SkyPorn
p1276
aVI2XAcNF_wallpapers
p1277
aVOg4G4LF_wallpapers
p1278
aVBwvHxZh_wallpapers
p1279
aVa1vKQHj_wallpapers
p1280
aVggpNdvQ_wallpapers
p1281
aVnDqTlfK_wallpapers
p1282
aVgA06BTE_wallpapers
p1283
aVza7pwIO_spaceporn
p1284
aVtyzqpOC_spaceporn
p1285
aV6lCtGZs_wallpapers
p1286
aV5H3AhCr_wallpapers
p1287
aVPi0KMiM_wallpapers
p1288
aVErrDwNo_wallpapers
p1289
aVPjSSGYR_wallpapers
p1290
aVmNulc1O_SkyPorn
p1291
aV5bvWdly_wallpapers
p1292
aVRnFSAoR_wallpapers
p1293
aViS8eHDj_wallpapers
p1294
aV2sJA7iv_wallpapers
p1295
aV8WD2ICR_wallpapers
p1296
aVbRe7A5b_wallpapers
p1297
aV6msBJlS_wallpapers
p1298
aVzaz4agb_BotanicalPorn
p1299
aVU1keNFB_wallpapers
p1300
aVp3gW8l0_waterporn
p1301
aVtQWWPv3_AbandonedPorn
p1302
aVQoXeVN3_wallpapers
p1303
aV5tPCHzX_wallpapers
p1304
aVmdLhToy_FirePorn
p1305
aVNIN9gZ1_wallpapers
p1306
aVRGGzKbI_wallpapers
p1307
aVHyOBIF3_wallpapers
p1308
aVepy7Eyy_SkyPorn
p1309
aVUYBKyvz_wallpapers
p1310
aV96fGNG6
p1311
aVZYSOxX4_wallpapers
p1312
aVk6svrmJ_GameWalls
p1313
aVfnp2mfn_SkyPorn
p1314
aVyQOI3WW_wallpapers
p1315
aVQjYy5rd_wallpapers
p1316
aVmohXYzO_wallpapers
p1317
aV0gOTQWG_wallpapers
p1318
aVJIIfgXb_wallpapers
p1319
aV5UTO72q_GameWalls
p1320
aVzVJxaaQ_waterporn
p1321
aV0Ufr6UW_wallpapers
p1322
aVRRo5sKA_wallpapers
p1323
aVXRmhdCL_wallpapers
p1324
aVZFmUWs5_DesignPorn
p1325
aVc6tPueL_wallpapers
p1326
aVyA8CTxF_wallpapers
p1327
aVcv833bn_wallpapers
p1328
aVHevbaSV_waterporn
p1329
aVDlvdltx_wallpapers
p1330
aVlDcSAED_wallpapers
p1331
aVKI1ZUgd_wallpapers
p1332
aVX9ZuZHO_BotanicalPorn
p1333
aVsbXJuJL_wallpapers
p1334
aV641jrCh_wallpapers
p1335
aVIctBqgQ
p1336
aV82Z5OLi_wallpapers
p1337
aVUnn5TT3_wallpapers
p1338
aVzM9xkjD_wallpapers
p1339
aVwOQ6uvi_wallpapers
p1340
aVfIrySFL_wallpapers
p1341
aVYjHiraS_wallpapers
p1342
aVgJMBXx3_wallpapers
p1343
aVW2CyE8j_wallpapers
p1344
aVvUSh8ti_wallpapers
p1345
aV8HJ3TR6_wallpapers
p1346
aVMIcPNwU_wallpapers
p1347
aVJVBYLQA_wallpapers
p1348
aVhZqrunx_wallpapers
p1349
aV6qADRt3_SkyPorn
p1350
aVWdXz5zt_wallpapers
p1351
aVwOK6Clq_wallpapers
p1352
aVRZQdF7v_wallpapers
p1353
aV05f8KIj_wallpapers
p1354
aVEgHvHF9_wallpapers
p1355
aVoE1eyOw_wallpapers
p1356
aVGA9QhdX_wallpapers
p1357
aV1YVsbNG_wallpapers
p1358
aVAsQAtWN_wallpapers
p1359
aVXRFUqxh
p1360
aVsFcVl08_MachinePorn
p1361
aVsvI4l6T_BotanicalPorn
p1362
aVwwADjpO_wallpapers
p1363
aVZ6uhzEh_wallpapers
p1364
aVDK1PXkJ_wallpapers
p1365
aVbx09MkS_SkyPorn
p1366
aV4T30Y6s_wallpapers
p1367
aVuzFbGPS_BotanicalPorn
p1368
aVtUT7Dh0_wallpapers
p1369
aVQO93mFB_wallpapers
p1370
aVYGhaJbW_wallpapers
p1371
aVzcIzwvs_FirePorn
p1372
aV6ozvhy9_wallpapers
p1373
aVnOIZdPY_wallpapers
p1374
aV0fYpelx_wallpapers
p1375
aV9oCHavM_wallpapers
p1376
aVOc1SA1F_wallpapers
p1377
aVJPY7uK6_wallpapers
p1378
aVVWkji2r_wallpapers
p1379
aVaDlZaeF
p1380
aVscZZCwW_wallpapers
p1381
aVVjNrBrp_wallpapers
p1382
aV42TJ3HX_DestructionPorn
p1383
aVgLsVsL4_wallpapers
p1384
aVdsBAuoq_wallpapers
p1385
aVoCUoRbm_RoomPorn
p1386
aVzLztdww_wallpapers
p1387
aVjrpr9MA_wallpapers
p1388
aV9vIsGDP_wallpapers
p1389
aVsToCu6h_wallpapers
p1390
aVzDJ8Yxz_wallpapers
p1391
aVrEOPhmL_wallpapers
p1392
aVJl10a9K_wallpapers
p1393
aVmBJg650_wallpapers
p1394
aVOfamqtU_wallpapers
p1395
aVJBX6aqX_wallpapers
p1396
aVi25mWEW_wallpapers
p1397
aV6Xg2OjQ_SkyPorn
p1398
aVy2y19Jr_wallpapers
p1399
aVUHEKCAE_GameWalls
p1400
aVmAfqMEs_wallpapers
p1401
aVBf2EVym_SkyPorn
p1402
aVudalR7c_wallpapers
p1403
aVE0i1tdj_wallpapers
p1404
aVBXfXJ0x
p1405
aVbCbJr0g_wallpapers
p1406
aVOqb0oKA_wallpapers
p1407
aVQWZgN7R_wallpapers
p1408
aVnHsasoc_wallpapers
p1409
aVk6nkbww
p1410
aV30GfKtt
p1411
aVUgtW5JW_wallpapers
p1412
aVpxcGdUO_wallpapers
p1413
aV7IhqiuO_HistoryPorn
p1414
aVLMZxUdm_BotanicalPorn
p1415
aVSL5FNez_wallpapers
p1416
aVEqGa3m8_wallpapers
p1417
aVIqZ5Y4t_SkyPorn
p1418
aVzeS1HrR_wallpapers
p1419
aVWhOp0lU_spaceporn
p1420
aVOHeRyes_wallpapers
p1421
aVDhXFBnC_CityPorn
p1422
aVyieNwsx_BotanicalPorn
p1423
aVRqc4nmd_wallpapers
p1424
aVRPLLfmo_wallpapers
p1425
aVkFsMtnw_SkyPorn
p1426
aVkiQxPeE_spaceporn
p1427
aV8oiy3Df_wallpapers
p1428
aVR6p9x8D_wallpapers
p1429
aVA55CjVS_wallpapers
p1430
aVf5BeFiM_wallpapers
p1431
aV4SRdw4p_wallpapers
p1432
aVcVm3VTa_wallpapers
p1433
aVtKlffky_wallpapers
p1434
aVvtKuS1l_wallpapers
p1435
aV6Kc2Ip5_wallpapers
p1436
aVdGOpF9Z_wallpapers
p1437
aVkZrcSrb_wallpapers
p1438
aVb6Loatk_wallpapers
p1439
aVxz7NkK9_wallpapers
p1440
aVK7aB57N_wallpapers
p1441
aVEr9yncU_wallpapers
p1442
aV3Ij5gCJ_wallpapers
p1443
aVJhFCTsP_SkyPorn
p1444
aV1hVuLdm_wallpapers
p1445
aVDGi9JGr_waterporn
p1446
aVEtUFSpT_wallpapers
p1447
aVPs23u8g_wallpapers
p1448
aVaCjAY2B_wallpapers
p1449
aV2vjhWtl_waterporn
p1450
aV9bOAqTo_wallpapers
p1451
aVEACFijc_SkyPorn
p1452
aVGswGiYt_wallpapers
p1453
aVcJCM8X0_wallpapers
p1454
aVSxZWMR3_SkyPorn
p1455
aVy4H03mN_SkyPorn
p1456
aVUuTaUAc_wallpapers
p1457
aV6oFvrx0_wallpapers
p1458
aVhWIVuKq_wallpapers
p1459
aVX11zD6L_wallpapers
p1460
aVRiLL1t6
p1461
aViFxewpf_wallpapers
p1462
aVGMyvmAK_wallpapers
p1463
aVQktm5OH_wallpapers
p1464
aV1LW20lR_wallpapers
p1465
aVAN0PvFE_BotanicalPorn
p1466
aVxcUfx2V_wallpapers
p1467
aVqaw1iy1_wallpapers
p1468
aVyXTTf8u_wallpapers
p1469
aVohppPP1_wallpapers
p1470
aVkWXI5rB_wallpapers
p1471
aVrlZpmwJ_wallpapers
p1472
aVnyolEkZ_wallpapers
p1473
aVp07Sbi4_MilitaryPorn
p1474
aVOYzIonU_wallpapers
p1475
aVaWug0wG_wallpapers
p1476
aVZh8htgQ_wallpapers
p1477
aVvvXLcHD_wallpapers
p1478
aVyuzh1gK_wallpapers
p1479
aV2uYc81P_wallpapers
p1480
aVVI9YL9q_wallpapers
p1481
aVVfWYYcv_waterporn
p1482
aVGuzrRZ9_wallpapers
p1483
aV8PVZsSp_wallpapers
p1484
aVZDh1Hi2_wallpapers
p1485
aVtNfGtnu_wallpapers
p1486
aValqmWeC_wallpapers
p1487
aVJAcnrv0_wallpapers
p1488
aVsxUVI4Z_wallpapers
p1489
aVnBpx0j6_wallpapers
p1490
aVk6Q8q1p_wallpapers
p1491
aVIluq0iu_wallpapers
p1492
aVmpFt07n_VillagePorn
p1493
aVahDsPgN
p1494
aV6qXOVsj_spaceporn
p1495
aVVG19J9Z_wallpapers
p1496
aVHrMNfmi_wallpapers
p1497
aVWizP8vc_wallpapers
p1498
aVP6c98Bb_wallpapers
p1499
aVWyUJmuh_GameWalls
p1500
aVfWpHmZu_wallpapers
p1501
aVqtBoAV6_SkyPorn
p1502
aVF9ZK8SA_MilitaryPorn
p1503
aVd4ubrO4_wallpapers
p1504
aVhw1vCOh_waterporn
p1505
aVW1VEEt8_wallpapers
p1506
aVMyFA2dH_wallpapers
p1507
aV5L6jyP2_AnimalPorn
p1508
aVqRyZTr6_wallpapers
p1509
aV8bQ1raV_wallpapers
p1510
aVZ87Akdw_wallpapers
p1511
aVkWCVFam_wallpapers
p1512
aVVygLjvI_wallpapers
p1513
aVRcDu3HQ_wallpapers
p1514
aVYVz2hZd_waterporn
p1515
aVdBDKObj_wallpapers
p1516
aV0pCA5Oz_wallpapers
p1517
aVfcxYs7B
p1518
aVBMJYv7K_wallpapers
p1519
aVjEMHz4G_wallpapers
p1520
aVLiydfZJ_spaceporn
p1521
aVYRqjXHV_wallpapers
p1522
aVPxmjKoK_wallpapers
p1523
aV4RrIOWw_wallpapers
p1524
aV1xvrgqS_wallpapers
p1525
aVMAs6vkp_wallpapers
p1526
aVTa7uXdY_HistoryPorn
p1527
aVPfCTO9n_wallpapers
p1528
aVMmjLQ2M_wallpapers
p1529
aVMeN3AN1_waterporn
p1530
aVX7lsZet_wallpapers
p1531
aVPZuVLpG_wallpapers
p1532
aV4WLNPYH_wallpapers
p1533
aVU11F4dS
p1534
aVrdL3MUp_wallpapers
p1535
aVns4QoX4_wallpapers
p1536
aVCRb6sCD_wallpapers
p1537
aVFz8l7oP_wallpapers
p1538
aV9tFHpue_wallpapers
p1539
aVUQyqzai_wallpapers
p1540
aVl6f5BCx_waterporn
p1541
aVtlkPcVO_wallpapers
p1542
aV68joMFN_spaceporn
p1543
aVoisWVn3_wallpapers
p1544
aV8KQhUdD_wallpapers
p1545
aVmCi9zNL_BotanicalPorn
p1546
aVYKySkzR_FirePorn
p1547
aVSfCMppa_wallpapers
p1548
aVNbrpMhc_wallpapers
p1549
aVRlzJgxv_wallpapers
p1550
aVzNLEsNw_wallpapers
p1551
aVXM3Yvua_wallpapers
p1552
aVEF7NxOL_wallpapers
p1553
aVH5Xe6JA_wallpapers
p1554
aVQB132j0_SkyPorn
p1555
aVxS2R3ak_wallpapers
p1556
aVLZxZKjz_wallpapers
p1557
aVSJuWXqD_spaceporn
p1558
aVhVxzs5q_wallpapers
p1559
aVZTNQJmH_SkyPorn
p1560
aVbJIJQxz_wallpapers
p1561
aVdtmFtmr_wallpapers
p1562
aV4b9Runo_wallpapers
p1563
aVXW5k831_GameWalls
p1564
aVl3UM3hT_SkyPorn
p1565
aVUfq65Mc_wallpapers
p1566
aVZnsNDM0_wallpapers
p1567
aVG7lz2sB_wallpapers
p1568
aV6uhSYUp_wallpapers
p1569
aVAhOm6pj_MoviePosterPorn
p1570
aV5T3NfwU_wallpapers
p1571
aV9RDW6zB_DesignPorn
p1572
aVgb2xhW8_wallpapers
p1573
aVGJ57puf_wallpapers
p1574
aVEKOdLaG_wallpapers
p1575
aVUFeXPN5_wallpapers
p1576
aVOkQi0y5_wallpapers
p1577
aV3cbGQQN_wallpapers
p1578
aV3XtVDbq_SkyPorn
p1579
aVciLAkKG_wallpapers
p1580
aV7nXTdf2_SkyPorn
p1581
aVAr8izeH_spaceporn
p1582
aVkBz6ebX_wallpapers
p1583
aVqmHwdHd_wallpapers
p1584
aVC94UCWZ_wallpapers
p1585
aVhfDAol3_wallpapers
p1586
aVbwUfi0X_wallpapers
p1587
aVdUFiANR_wallpapers
p1588
aVPYjv4VO_GameWalls
p1589
aVbRp1c7E_wallpapers
p1590
aVbjCl03e_wallpapers
p1591
aVvSJeddj_wallpapers
p1592
aVAyc28op_BotanicalPorn
p1593
aVTuQs8Qe_wallpapers
p1594
aV68uCJoZ_wallpapers
p1595
aVqt8eTE1_spaceporn
p1596
aVWydQ2X3_wallpapers
p1597
aVDNBRUW2_wallpapers
p1598
aV3H37Ytb_wallpapers
p1599
aVB7THL8M_wallpapers
p1600
aVOv504G0_SkyPorn
p1601
aVmQibJhy_wallpapers
p1602
aVpWS8iWg_wallpapers
p1603
aVQJSXMmJ_wallpapers
p1604
aVcs4AAF8_wallpapers
p1605
aV9Ki5kpl_wallpapers
p1606
aVwX7faNI_wallpapers
p1607
aVYOCMFvE
p1608
aV8SBHlIw_wallpapers
p1609
aVW2OKwJx_wallpapers
p1610
aVEYM313D_wallpapers
p1611
aVRc62hcs_wallpapers
p1612
aVUqQM4nE_SkyPorn
p1613
aVc69KqzG_SkyPorn
p1614
aVwvpH3Fm_wallpapers
p1615
aVoqi8vF2_wallpapers
p1616
aVof2Erj9_wallpapers
p1617
aVwTZBDAn_SkyPorn
p1618
aViAERDgN_EarthPorn
p1619
aVurgR4Wk_wallpapers
p1620
aVahDsPgN_AlbumArtPorn
p1621
aVTKgFcfO_wallpapers
p1622
aVKidlzNQ_wallpapers
p1623
aV7LNmxJf_wallpapers
p1624
aVVY7UnOO_SkyPorn
p1625
aVBqwvJOu_SkyPorn
p1626
aVD2m3JcF_DestructionPorn
p1627
aVUmYb5ef_wallpapers
p1628
aV3Rtup4n_wallpapers
p1629
aVMCMefBL_wallpapers
p1630
aVUPOoIEw_wallpapers
p1631
aV7WV6IZT_wallpapers
p1632
aVaRsPBxb_wallpapers
p1633
aVOsISHfc_wallpapers
p1634
aVuypVrCK_SkyPorn
p1635
aVoXnf7N4_wallpapers
p1636
aV1mUumAu_MachinePorn
p1637
aVdwvwq_DesignPorn
p1638
aVOPmxgFW_DesignPorn
p1639
aVd7U0Cte_wallpapers
p1640
aVQxOxxMj_wallpapers
p1641
aVJuUDRTB_wallpapers
p1642
aV4gDfrjd_wallpapers
p1643
aVkNmgUtS_spaceporn
p1644
aV94GaGp0_DestructionPorn
p1645
aV9HfbDeQ_wallpapers
p1646
aVnYeMrxW_wallpapers
p1647
aViAERDgN
p1648
aVF43N7dc
p1649
aVtgRT2ym_wallpapers
p1650
aVHd9VOjO_wallpapers
p1651
aVkSgVs1R_waterporn
p1652
aV4oLFfjl_wallpapers
p1653
aVz76U67g_wallpapers
p1654
aVsKJhFuq_SkyPorn
p1655
aVQREc8Wr_wallpapers
p1656
aVLjmIWBx_wallpapers
p1657
aVZmyOfd9_GameWalls
p1658
aV25viwt8_wallpapers
p1659
aVomUoiak
p1660
aVgifTdFh_wallpapers
p1661
aVSZZ3gzz_wallpapers
p1662
aVKyyz8m0_wallpapers
p1663
aVLcTrS1f_wallpapers
p1664
aVdbtCVT9_wallpapers
p1665
aVm71HB1r_FirePorn
p1666
aVQ61WbOD_wallpapers
p1667
aVombCjUv_wallpapers
p1668
aVv068b9O_EarthPorn
p1669
aVuIRD3FW_MilitaryPorn
p1670
aVHZeG3KD_waterporn
p1671
aVu96oQ93_wallpapers
p1672
aVmh0y4RI_wallpapers
p1673
aVLayIuRL_wallpapers
p1674
aVQS4i4nd_wallpapers
p1675
aVdqkpe9z_wallpapers
p1676
aVGfesfDA_wallpapers
p1677
aVJT25kd3_wallpapers
p1678
aVLrlM2Jg_wallpapers
p1679
aV7nOd7A9_wallpapers
p1680
aVETDH748_wallpapers
p1681
aVYpWSUMx_wallpapers
p1682
aVLgui6xi_wallpapers
p1683
aVfoVXI5v_wallpapers
p1684
aVdWlP7dR_wallpapers
p1685
aVURJ8jiO_wallpapers
p1686
aV6iIEV7r_wallpapers
p1687
aVi8dj55u_wallpapers
p1688
aVooJaJ2a_wallpapers
p1689
aVvdLtruZ_wallpapers
p1690
aVi63CMac_wallpapers
p1691
aVfHmZwTM_wallpapers
p1692
aVNeB1nAI_wallpapers
p1693
aVXm8cxpq_wallpapers
p1694
aV7CzDRqw_wallpapers
p1695
aVq78rsrr_waterporn
p1696
aVF4KoKKv_wallpapers
p1697
aVTGzuIVY_wallpapers
p1698
aVnLiZrLZ_wallpapers
p1699
aVOVLL7Ha_waterporn
p1700
aVsmzXtv3_wallpapers
p1701
aVsUrAI5z_wallpapers
p1702
aVO9EdkvD_wallpapers
p1703
aVVsrBFTa_wallpapers
p1704
aVVUwN4ii_wallpapers
p1705
aVPXU3Z7Z_wallpapers
p1706
aVYhAVR8O_wallpapers
p1707
aVqQqnMfE_wallpapers
p1708
aV1npOc76_wallpapers
p1709
aV7GQSAsi_wallpapers
p1710
aVLMMvojH
p1711
aV1nEbKIK_wallpapers
p1712
aVHM2ENYJ_wallpapers
p1713
aVN2o8J7f_wallpapers
p1714
aV3bpoXzP_MilitaryPorn
p1715
aV3Q3rRFV_SkyPorn
p1716
aVHK72AwG
p1717
aVEjRkjsd_wallpapers
p1718
aVp3hQQ5e_wallpapers
p1719
aVSeei8Sp_wallpapers
p1720
aVt0D8ZgY_wallpapers
p1721
aV8d9Trmu_wallpapers
p1722
aVJIUsnDi_SkyPorn
p1723
aVlZf18xI
p1724
aV24ZtXN6_SkyPorn
p1725
aVyzrRRIl_wallpapers
p1726
aVxdxrgDa_wallpapers
p1727
aVAnStCq7_wallpapers
p1728
aVywvgWSi
p1729
aVl7Si54y_BotanicalPorn
p1730
aVzYr5eEv_wallpapers
p1731
aVeMYC0Er_wallpapers
p1732
aVWnc2itG_wallpapers
p1733
aVe5bk6Db_wallpapers
p1734
aVugwrtNn_wallpapers
p1735
aVniBasGI_spaceporn
p1736
aVtGEyym0_waterporn
p1737
aVPU87bxk_wallpapers
p1738
aVhDiB14i_wallpapers
p1739
aVLqjzM8O_wallpapers
p1740
aVZNGtQen_wallpapers
p1741
aVptk5fJr_wallpapers
p1742
aVIfS3qzn_wallpapers
p1743
aVk59N4s7_wallpapers
p1744
aVAVynAMI_wallpapers
p1745
aVgI5NVA0_wallpapers
p1746
aVdzMMyVD_waterporn
p1747
aVynXSYdU_wallpapers
p1748
aVcYbnBbs_SkyPorn
p1749
aVob0Xr56_wallpapers
p1750
aV6VBP05X_wallpapers
p1751
aVQKQEfPc
p1752
aVW7zvrD7_wallpapers
p1753
aV4VUzFZh_SkyPorn
p1754
aV6a6uR1z_wallpapers
p1755
aV7MNZLfr_SkyPorn
p1756
aVZib2wob_SkyPorn
p1757
aVL62QVlx_wallpapers
p1758
aVKwCiIBW_wallpapers
p1759
aVZNdtkwC_wallpapers
p1760
aVmuoxWWN_DestructionPorn
p1761
aV9mdriQK_wallpapers
p1762
aV0lqZEFl_wallpapers
p1763
aVSV47y3o_wallpapers
p1764
aVRPJ4WKK_wallpapers
p1765
aVxPa2uUf_DesignPorn
p1766
aVcPWMxmd_wallpapers
p1767
aVTgQ5bKM_wallpapers
p1768
aVQ7qbtNa_wallpapers
p1769
aVd7l9lbV_wallpapers
p1770
aVo8r0gH7_wallpapers
p1771
aVmfNVj26_wallpapers
p1772
aV2v400T2_wallpapers
p1773
aVRaU7GRF_BotanicalPorn
p1774
aVcYbnBbs_waterporn
p1775
aVLcpAlC6_wallpapers
p1776
aVh7fwz62_wallpapers
p1777
aVWV1P5y3_wallpapers
p1778
aV7gYUNK6_wallpapers
p1779
aVhdnUGHn_wallpapers
p1780
aVLQM2qA8_wallpapers
p1781
aVcr8X29c_wallpapers
p1782
aVylYBmHG_wallpapers
p1783
aVzvwfdAx_wallpapers
p1784
aVEveMk5X_wallpapers
p1785
aVnO07zDt_wallpapers
p1786
aVxS0dGqS_wallpapers
p1787
aVilUFr3t_wallpapers
p1788
aV3bbe6i9_wallpapers
p1789
aVzf0D6O0_wallpapers
p1790
aV1LFdKYa_BotanicalPorn
p1791
aVlSmu79h_wallpapers
p1792
aVGuLt0go_wallpapers
p1793
aVKkMoauZ_wallpapers
p1794
aVhtiEIKB_SkyPorn
p1795
aV4A9BxxV_wallpapers
p1796
aVPORcnxi_BotanicalPorn
p1797
aVnQFVTgL_wallpapers
p1798
aV0iIZF2o_wallpapers
p1799
aV4ki7nhO_wallpapers
p1800
aVGeShYi4_wallpapers
p1801
aVo3vhMXG_wallpapers
p1802
aV6CuHuli_SkyPorn
p1803
aV6MW2it2_SkyPorn
p1804
aVvlSCa8P_wallpapers
p1805
aVXwVM1EF_wallpapers
p1806
aVtdOYQqz_wallpapers
p1807
aVCsKzYbg_wallpapers
p1808
aV56g5Oq5_SkyPorn
p1809
aVhXSi5Za_wallpapers
p1810
aV3z2n9oK_wallpapers
p1811
aVDcwOizu_wallpapers
p1812
aVOURNZ0V_GameWalls
p1813
aVl3F8gh1_BotanicalPorn
p1814
aVUC0NdAN_ImaginaryLandscapes
p1815
aVM5YQv5V_wallpapers
p1816
aVVJ4chVK_spaceporn
p1817
aVJkn9O4W_waterporn
p1818
aV7rfXieR_wallpapers
p1819
aVDT6o25E_AnimalPorn
p1820
aVr9bihtL_wallpapers
p1821
aVqPyhted_SkyPorn
p1822
aVjTgdg6h_BotanicalPorn
p1823
aVCUdlBxk_wallpapers
p1824
aVqtQiPyo_wallpapers
p1825
aVffCvvKw_wallpapers
p1826
aVaO7LOx8_wallpapers
p1827
aV66nVKzv_wallpapers
p1828
aVXVnTLfD_wallpapers
p1829
aV3X0jYu8_wallpapers
p1830
aVwKyzqfz_SkyPorn
p1831
aVBnuio6E_SkyPorn
p1832
aVDQmgiXW_waterporn
p1833
aVua246QJ_wallpapers
p1834
aVixyPzBb_BotanicalPorn
p1835
aVOOL0mTr_wallpapers
p1836
aVawtlOxX_wallpapers
p1837
aVYr7yo3M
p1838
aVxBEYvyS_wallpapers
p1839
aVdWtsPjo_wallpapers
p1840
aVDp8huwl_wallpapers
p1841
aVOsdkEhP_wallpapers
p1842
aV2aBcOGn_SkyPorn
p1843
aVbJ1nEpm_SkyPorn
p1844
aVkxfcuVM_wallpapers
p1845
aVbbNRm4D_wallpapers
p1846
aVn8N0JFd_wallpapers
p1847
aVxznnq
p1848
aViL8eCJG_wallpapers
p1849
aVlt1nRjR_waterporn
p1850
aVA6ssmAd_waterporn
p1851
aVj6EWl8r_wallpapers
p1852
aVLMMvojH_AlbumArtPorn
p1853
aVq3qTX0M_wallpapers
p1854
aVA0M2DyK_wallpapers
p1855
aVz2z8aIM_wallpapers
p1856
aV3189fbs_wallpapers
p1857
aVk3QpmL3_wallpapers
p1858
aVz6kvEpx_wallpapers
p1859
aVQpubh3D
p1860
aVDPvW4PZ_wallpapers
p1861
aVtf9p0iN_wallpapers
p1862
aVYHC0zyX_wallpapers
p1863
aVi5QzgS0_wallpapers
p1864
aVqay2wuv_wallpapers
p1865
aVipG0Olm_wallpapers
p1866
aVfQycyJP_wallpapers
p1867
aVnI7On6m_SkyPorn
p1868
aVOsrVYgx_wallpapers
p1869
aVNIBQ0Bq_wallpapers
p1870
aV37sssGX_wallpapers
p1871
aVz3yV3Xc_wallpapers
p1872
aV1dXkS46_wallpapers
p1873
aV65cb5WH_GeekPorn
p1874
aVYoIFfGO_wallpapers
p1875
aVVdTCvq6_wallpapers
p1876
aVZbBjfmV_wallpapers
p1877
aV16pGN2I
p1878
aVywvgWSi_AlbumArtPorn
p1879
aVKdlOaEg_wallpapers
p1880
aVvrQccrU_wallpapers
p1881
aVDwDfYPg_BotanicalPorn
p1882
aV9ZzSr02_wallpapers
p1883
aVP4kLsRy_spaceporn
p1884
aV5nZ2fZq_wallpapers
p1885
aVI5XZ8XJ_SkyPorn
p1886
aVvMg3DrD_MilitaryPorn
p1887
aVJXRON40_wallpapers
p1888
aV5kRYcQ9_BotanicalPorn
p1889
aVviXe29x_wallpapers
p1890
aVJuZFsip_wallpapers
p1891
aVBuU3SQ9_SkyPorn
p1892
aVALoAAR3_wallpapers
p1893
aV4stsKXG_SkyPorn
p1894
aVakKRW5f_wallpapers
p1895
aV7PdwOSZ
p1896
aVuJEbKzQ_wallpapers
p1897
aVuxFDvwG_SkyPorn
p1898
aVTgRhftY_wallpapers
p1899
aVdlT3EG9_wallpapers
p1900
aV71sSAWS_SkyPorn
p1901
aV2k1qAml_wallpapers
p1902
aV4Ggocwg_wallpapers
p1903
aVEsECAd5_wallpapers
p1904
aViGdPB0d
p1905
aVjKqdDLi_wallpapers
p1906
aV9H0A6gB_wallpapers
p1907
aVXkhk8Aa_wallpapers
p1908
aVCbTSYV7_AlbumArtPorn
p1909
aVdWjh6f0_wallpapers
p1910
aVUASVH6z_wallpapers
p1911
aVbXd4Rau_wallpapers
p1912
aVB9bOooC_wallpapers
p1913
aVA6UQy5V_wallpapers
p1914
aVLap2BfD_SkyPorn
p1915
aV0tvoIXB_wallpapers
p1916
aVxtoY7Rh_wallpapers
p1917
aVDmp0NxM_wallpapers
p1918
aVtSt0Cyr_wallpapers
p1919
aVKBcEbOU_spaceporn
p1920
aViQhWLuh_wallpapers
p1921
aVwtYNTck_SkyPorn
p1922
aVSD7bWNv_wallpapers
p1923
aV7ri2Gy6_wallpapers
p1924
aVyONCWJu_wallpapers
p1925
aVHhP8iZk_wallpapers
p1926
aVjoVjXGc_DesignPorn
p1927
aVug9mQNV_wallpapers
p1928
aV8hdpvYH_wallpapers
p1929
aVtUBHdqi_SkyPorn
p1930
aVTVz8nfE_wallpapers
p1931
aV1FKT8_wallpapers
p1932
aVhMoiNs2_wallpapers
p1933
aVGmVXIdj_waterporn
p1934
aVbWyNo25_wallpapers
p1935
aVvAwEn8b_wallpapers
p1936
aVyjNE81I_wallpapers
p1937
aVb4DCrI1_SkyPorn
p1938
aVLf7MNXE_wallpapers
p1939
aV6MuHvMo_wallpapers
p1940
aVRvpTLsz_SkyPorn
p1941
aVNqFRwrH_wallpapers
p1942
aVv8Lh19g_wallpapers
p1943
aVGC24A8D_wallpapers
p1944
aVv23Aqip_wallpapers
p1945
aVSuoR4p8_spaceporn
p1946
aVknNKFKk_wallpapers
p1947
aVLz6yJas_wallpapers
p1948
aV1irGxHU_wallpapers
p1949
aVzEgzZX4_wallpapers
p1950
aVG0WqLoK_wallpapers
p1951
aVsYRwryP_BotanicalPorn
p1952
aVFojyimd_DestructionPorn
p1953
aVjLOVvxC_wallpapers
p1954
aV0InYUPL_wallpapers
p1955
aVPwxW4zt_wallpapers
p1956
aVJIIP2vd_wallpapers
p1957
aVbTjcRwg_wallpapers
p1958
aV4wn8XiT_SkyPorn
p1959
aVO9ozikT_wallpapers
p1960
aVvHZmQj6_wallpapers
p1961
aVr3BrVi5_wallpapers
p1962
aVfwToVW8_wallpapers
p1963
aVX52ETxf_wallpapers
p1964
aVSGakNJH_wallpapers
p1965
aVaBgYHLP_wallpapers
p1966
aVIzn6l5Z_AbandonedPorn
p1967
aVY1Vg1IV_SkyPorn
p1968
aVxBKlrG6_wallpapers
p1969
aVvQee7Rj_wallpapers
p1970
aV6SiRmfd_GameWalls
p1971
aVWoETCdl_wallpapers
p1972
aVELAAYWO_wallpapers
p1973
aV0e6YHwM_wallpapers
p1974
aVMN7WXhA_wallpapers
p1975
aVBlF63ao_wallpapers
p1976
aVo32liyV_wallpapers
p1977
aVzv7phYI_AbandonedPorn
p1978
aVeQTPWWh_wallpapers
p1979
aVRduqFkN_wallpapers
p1980
aVhp8y7nn_wallpapers
p1981
aVt6pDEr4_SkyPorn
p1982
aVpIJGFoM_wallpapers
p1983
aVXIRB0rd_wallpapers
p1984
aVqwg1cFc_BotanicalPorn
p1985
aVMPuW994_wallpapers
p1986
aVYFKWCjq_wallpapers
p1987
aVEhCpHkY_wallpapers
p1988
aVUz5efhr_wallpapers
p1989
aVEIUWkjO_wallpapers
p1990
aVMCTPEtp_wallpapers
p1991
aVZQQvvP2_wallpapers
p1992
aVEGouoPj_wallpapers
p1993
aVXxgc52e_wallpapers
p1994
aVgLvXfjq_wallpapers
p1995
aVxwV8pQq_wallpapers
p1996
aVvip7WEG_wallpapers
p1997
aV8EfJH15_SkyPorn
p1998
aVIR0b8Mx_wallpapers
p1999
aVKBW6mjj_wallpapers
p2000
aV9Zdwm9X_AbandonedPorn
p2001
aVnGTgmJn_wallpapers
p2002
aVd3IcpkQ_wallpapers
p2003
aVQZjYVJV_wallpapers
p2004
aVZ6Wnw6I_wallpapers
p2005
aVXW5k831_wallpapers
p2006
aVCYD8nNS_wallpapers
p2007
aVV3rDHzZ_SkyPorn
p2008
aVfyUOwc3_wallpapers
p2009
aVKCIyEdP_wallpapers
p2010
aVrchJ8MJ_wallpapers
p2011
aVbi8PPH8_SkyPorn
p2012
aVcH8Z4CC_wallpapers
p2013
aVPFN6Vd0_wallpapers
p2014
aVwyctzKR_wallpapers
p2015
aV8J9pX72_wallpapers
p2016
aVo3QoyCn_wallpapers
p2017
aVnMp9cEJ_wallpapers
p2018
aVT9DZAoW_waterporn
p2019
aV4xKIauU_DesignPorn
p2020
aV4bwVlvi_wallpapers
p2021
aVEGvbFGX_wallpapers
p2022
aVmvPE7pI_wallpapers
p2023
aV3yrZzwA_waterporn
p2024
aVC5zPV8S_waterporn
p2025
aVHZNjBmv
p2026
aVIDJF9Ff_wallpapers
p2027
aVnXh6cqY_wallpapers
p2028
aVvpM42N3_wallpapers
p2029
aVctK6W4w_wallpapers
p2030
aVNP57jgt_wallpapers
p2031
aVwz1voIw_spaceporn
p2032
aVquzRHcK_wallpapers
p2033
aV7NcsvAD_wallpapers
p2034
aVvRQoS51_wallpapers
p2035
aVK8ilxVS_wallpapers
p2036
aVvUHWvVd_wallpapers
p2037
aVIqwRrfj_wallpapers
p2038
aVUpZWEqB_wallpapers
p2039
aVLja8ayd_wallpapers
p2040
aVoNappqd_wallpapers
p2041
aVysygA33_wallpapers
p2042
aVoM2GtYF_wallpapers
p2043
aVLYEcGwq_wallpapers
p2044
aVdLFTjOh_wallpapers
p2045
aV4gWXcCA_wallpapers
p2046
aVPtEXN1x_wallpapers
p2047
aVbmiIhks_spaceporn
p2048
aVNIwOYcq_SkyPorn
p2049
aVg4vwa3j_wallpapers
p2050
aVrAZUvEI_wallpapers
p2051
aVC8s5T2b_wallpapers
p2052
aVU9Z4OOR_wallpapers
p2053
aVgNzoAAi_wallpapers
p2054
aVoD4d32R_wallpapers
p2055
aV8nocSOE_wallpapers
p2056
aVI3TpBDn_BotanicalPorn
p2057
aVCfsSvOL_wallpapers
p2058
aVJn6jJ6U_BotanicalPorn
p2059
aVF86xJaO_wallpapers
p2060
aVpOCDObk_wallpapers
p2061
aVFKrF8So_SkyPorn
p2062
aVAhOm6pj
p2063
aVFSsz7zV_wallpapers
p2064
aVkvrnfNs_SkyPorn
p2065
aVCdOxKJ5_SkyPorn
p2066
aVSn8YQU9_wallpapers
p2067
aVkQPLRgN_wallpapers
p2068
aVXZIVDck_SkyPorn
p2069
aVFaUAbtP_wallpapers
p2070
aVKJFXk9R_wallpapers
p2071
aVpcdPlMn
p2072
aVlN4xLFY_wallpapers
p2073
aVqXMlYaW_wallpapers
p2074
aVAyZkEnh_wallpapers
p2075
aVAZMINpH_waterporn
p2076
aVARpU50y_wallpapers
p2077
aVUhmWwOi_wallpapers
p2078
aV9xoXbGB_wallpapers
p2079
aVDccoMTs_wallpapers
p2080
aVAQSrkuk_wallpapers
p2081
aVbJXo8xM_wallpapers
p2082
aVUgDy3Kg_wallpapers
p2083
aVqfGmEs4_wallpapers
p2084
aVbB6djoo_wallpapers
p2085
aV24MQfK6_wallpapers
p2086
aV1H69Q6k_wallpapers
p2087
aVo4BeEuT_CityPorn
p2088
aVXb7NTbs_wallpapers
p2089
aV7CwGqQw_wallpapers
p2090
aVJ6eZYyR_wallpapers
p2091
aVjYRnX62_wallpapers
p2092
aVLgX7Cw6_wallpapers
p2093
aVpbQpG5E_wallpapers
p2094
aVnwGmOHy_wallpapers
p2095
aVY1ttwBx_wallpapers
p2096
aVfivsg5C_wallpapers
p2097
aVlj8NPjf_spaceporn
p2098
aVR2uluFH_wallpapers
p2099
aVn6CyOoM_waterporn
p2100
aVmf0bWGz_GeekPorn
p2101
aVMkOAYLV_wallpapers
p2102
aVL5auY6U_wallpapers
p2103
aVip1QlIX_wallpapers
p2104
aVlGCTXZk_wallpapers
p2105
aV79Ljx0V_wallpapers
p2106
aVbkrx8T6_wallpapers
p2107
aVOUnBZLK_wallpapers
p2108
aVwyQUUP1_wallpapers
p2109
aVwTnbPyJ_wallpapers
p2110
aV9ERgEny_wallpapers
p2111
aVeEIJSDM_wallpapers
p2112
aV8P9z9c1_wallpapers
p2113
aVjehS9uA_waterporn
p2114
aVdDCWVk7_wallpapers
p2115
aVTC3kl0n_wallpapers
p2116
aVr8pF0Ye_wallpapers
p2117
aVdsRcupz_wallpapers
p2118
aVv3jA2oK_InfrastructurePorn
p2119
aV8ncbP74_wallpapers
p2120
aV6mZQffP_wallpapers
p2121
aVsFSePAK_wallpapers
p2122
aVYtVbAAX_wallpapers
p2123
aVMhdeYyh_SkyPorn
p2124
aVx7CjiJd
p2125
aVi6yKAGb_wallpapers
p2126
aVn9oIxYr_wallpapers
p2127
aVfefvz82_wallpapers
p2128
aVUE9ZGWS_wallpapers
p2129
aVEptayT1_wallpapers
p2130
aVXg4Zczx_wallpapers
p2131
aVQqn0jaC_SkyPorn
p2132
aVjszsHSU_wallpapers
p2133
aVFFxVkgl_wallpapers
p2134
aVCi7ZLWB_wallpapers
p2135
aVGwaVFbH_wallpapers
p2136
aVNphvogx_wallpapers
p2137
aVY3QQO6B_wallpapers
p2138
aVeXnwJeS_SkyPorn
p2139
aV79T9GGe_SkyPorn
p2140
aVVqrDxGW_wallpapers
p2141
aVc43oJJL_HumanPorn
p2142
aVIT9wCPw_GeekPorn
p2143
aVScAtrJR_wallpapers
p2144
aVuyBi7Wi_wallpapers
p2145
aVtfkKszC_wallpapers
p2146
aVEfTA0V0_wallpapers
p2147
aVLbgVMIt_wallpapers
p2148
aVRK2Yqg1_waterporn
p2149
aVIYUA5m0_wallpapers
p2150
aVjtVlyQJ_wallpapers
p2151
aVIdj1XGq_spaceporn
p2152
aVyOTFiI1_wallpapers
p2153
aVlIvqECz_wallpapers
p2154
aVEFPpj9A_wallpapers
p2155
aVcZbUuAa_wallpapers
p2156
aVnLRBTmS_wallpapers
p2157
aVNvbpKMW_wallpapers
p2158
aVN1ENAeg_wallpapers
p2159
aVlsAKOEp_wallpapers
p2160
aV5eDOJOJ_wallpapers
p2161
aVXBRZjn1_waterporn
p2162
aVPWEBAIf_SkyPorn
p2163
aV7qc0riy_wallpapers
p2164
aVq3Ir09k_SkyPorn
p2165
aVapJrNuR_wallpapers
p2166
aVW9186PJ_wallpapers
p2167
aVSWN3DMe_SkyPorn
p2168
aVHlf9nRf_wallpapers
p2169
aV4yX8N6U_wallpapers
p2170
aVyHDs6YV_wallpapers
p2171
aV6e5gDDX_wallpapers
p2172
aVqczg10F_SkyPorn
p2173
aVi8hAXli_wallpapers
p2174
aV0zqAjv8_BotanicalPorn
p2175
aVFcEn9Ed_wallpapers
p2176
aVA6zbRSM_wallpapers
p2177
aVLgu3Ayv
p2178
aV9ai1zx3_wallpapers
p2179
aVwXU3dMd_wallpapers
p2180
aVh018TUC
p2181
aVXOCMGlg_wallpapers
p2182
aV1E3f3wn_SkyPorn
p2183
aVF4LPh0N_wallpapers
p2184
aVn0TovZY_wallpapers
p2185
aVYENwKkg_SkyPorn
p2186
aVRSj39rb_wallpapers
p2187
aVxuSQvt1_wallpapers
p2188
aVOJN4Xo5_wallpapers
p2189
aVgV3mEXE
p2190
aVE9wv6rP_wallpapers
p2191
aVdKyaMQm_wallpapers
p2192
aV8ziQqb3_wallpapers
p2193
aVosZe8sP_wallpapers
p2194
aV3bpoXzP
p2195
aV5qRGJCt_wallpapers
p2196
aVQokXtr9_wallpapers
p2197
aVX2OGYOj_wallpapers
p2198
aVcDXQGQ6_wallpapers
p2199
aVyc5bI2u_wallpapers
p2200
aVDliYxTr_wallpapers
p2201
aVRwQlbxV_wallpapers
p2202
aVpxan89m_wallpapers
p2203
aVp54eIJ7_SkyPorn
p2204
aVNS0HcWj_wallpapers
p2205
aVhgGxQXi_wallpapers
p2206
aVNezOKm7_wallpapers
p2207
aVed8xRhp_wallpapers
p2208
aV7qj6ZZV_GameWalls
p2209
aVeKY66Jn_wallpapers
p2210
aVlu6Lohm
p2211
aV1IcgDNQ_SkyPorn
p2212
aV7ofmMvm_wallpapers
p2213
aVFIXyOEx_wallpapers
p2214
aVEyoXMzG_wallpapers
p2215
aV0thU5xE_wallpapers
p2216
aVuEWho88_wallpapers
p2217
aVVGqOheG_wallpapers
p2218
aVVe2zWGz_wallpapers
p2219
aVvmfIIAB_wallpapers
p2220
aVySIphRe_wallpapers
p2221
aV0EY1ZGT_wallpapers
p2222
aVHgtMMsH_wallpapers
p2223
aVRNyiGvN_wallpapers
p2224
aVxDcUppS_wallpapers
p2225
aVDPlxSiZ_wallpapers
p2226
aVov47lDE_DesignPorn
p2227
aVOhLeJIm_wallpapers
p2228
aVa5dEfkX_wallpapers
p2229
aVz3QGfCm_wallpapers
p2230
aVRvOl5L1
p2231
aVfe1UXSl_wallpapers
p2232
aV7dGWTkj_VillagePorn
p2233
aVLCtQiMW_wallpapers
p2234
aVbZpNRvt_wallpapers
p2235
aVyf2xIr3_wallpapers
p2236
aVujg3nyX_wallpapers
p2237
aVSX2mqAo_wallpapers
p2238
aVJOXLPVp_wallpapers
p2239
aVE4YjSLZ_wallpapers
p2240
aVYSbwb5j_wallpapers
p2241
aVrErkigj
p2242
aVRgtPO4g_wallpapers
p2243
aViXowSvX_GameWalls
p2244
aVf9lFX26_wallpapers
p2245
aVALEA2Os_SkyPorn
p2246
aVQSEG70w_spaceporn
p2247
aVaiePtlx_MilitaryPorn
p2248
aV9DWDi59_wallpapers
p2249
aV8EDJTHe_SkyPorn
p2250
aVgNhGfgN_wallpapers
p2251
aVzF90iRM_wallpapers
p2252
aVzXpMwLM_waterporn
p2253
aV7OUFQjm_wallpapers
p2254
aVWbA1noK_spaceporn
p2255
aVXAtFCXc_wallpapers
p2256
aVy7WbWSi
p2257
aVJvaRl04_spaceporn
p2258
aVvGKNxcV_wallpapers
p2259
aVY3IaxzA_wallpapers
p2260
aVodt0J8Y_wallpapers
p2261
aVFzOAQFx_wallpapers
p2262
aVPukrHUH_waterporn
p2263
aVLo5lfAU_wallpapers
p2264
aVQIsRHx7_wallpapers
p2265
aVIfk3bnv_wallpapers
p2266
aVIUXrOPP_wallpapers
p2267
aVtpg2FRP_wallpapers
p2268
aVURBvnjy_wallpapers
p2269
aVIctBqgQ_SkyPorn
p2270
aVOkw4tGd_wallpapers
p2271
aVSjk8tUk_wallpapers
p2272
aVTA6z4Up_waterporn
p2273
aV9IaiULF_wallpapers
p2274
aVEM8dxjK_wallpapers
p2275
aVjZI3UGy_MilitaryPorn
p2276
aV71pu9D2_wallpapers
p2277
aVmVAItYp_wallpapers
p2278
aVgtw6UJw_SkyPorn
p2279
aVmp2fD1G_spaceporn
p2280
aVL7D0Yg8_BotanicalPorn
p2281
aVtpHXZHG_MilitaryPorn
p2282
aVIq5nVJ0_wallpapers
p2283
aVTEOcf2Y_GeekPorn
p2284
aVKPXGsqv_wallpapers
p2285
aVyCmZDpq_wallpapers
p2286
aVSMLttiv_wallpapers
p2287
aV8j7atSl_wallpapers
p2288
aVZWhG9Fz_wallpapers
p2289
aVI3Q0y4h_SkyPorn
p2290
aVRewtvaD_wallpapers
p2291
aVqwWfZBX_wallpapers
p2292
aVgDjcui8_wallpapers
p2293
aVjm3WLDl_SkyPorn
p2294
aVM7r69RB
p2295
aVCfZNmp7_wallpapers
p2296
aVS7zRrlh_BotanicalPorn
p2297
aVm4XIXfx_wallpapers
p2298
aVzc0PnvQ_wallpapers
p2299
aVZY0HzJ0_wallpapers
p2300
aV65GeJVr
p2301
aVPYKd8SV_SkyPorn
p2302
aVVgGFLeX
p2303
aVrj8YFcZ_wallpapers
p2304
aV7MsI1Pj_wallpapers
p2305
aVTPzTooR_wallpapers
p2306
aVsaKOnDy_wallpapers
p2307
aV4vmBd1V_wallpapers
p2308
aVvqMiTAr_wallpapers
p2309
aVcjr3gAm_GameWalls
p2310
aVvZjriLn_wallpapers
p2311
aV3up26JK_wallpapers
p2312
aVA9biIEU_wallpapers
p2313
aVKfFGMzB_wallpapers
p2314
aViVWbEeV_wallpapers
p2315
aVmFarI1S_wallpapers
p2316
aVO2itjXV_SkyPorn
p2317
aVH2RZkCc_wallpapers
p2318
aVlV6Ra9l_wallpapers
p2319
aVAQyJJn7_wallpapers
p2320
aVRqvgm1a_spaceporn
p2321
aVm4UqLYM_wallpapers
p2322
aV7Qy0NFM_wallpapers
p2323
aV7iXgHIu_GeekPorn
p2324
aVLdc8gy4_waterporn
p2325
aV3GJTbTC_wallpapers
p2326
aVjCyYWXz_wallpapers
p2327
aVgDm2wIJ_wallpapers
p2328
aVuzCglaJ_wallpapers
p2329
aVnN1RDqI_wallpapers
p2330
aVmFc9tW5_wallpapers
p2331
aVpLUpx2V_wallpapers
p2332
aVxVzqgHT_wallpapers
p2333
aV9jURokf_wallpapers
p2334
aVpVrFdRb_wallpapers
p2335
aVAUbnu5v_wallpapers
p2336
aV26PMfqu_wallpapers
p2337
aVq5TXrLo_SkyPorn
p2338
aVLdpj6Gw_wallpapers
p2339
aVLiCH0bS_wallpapers
p2340
aVDlJKoIx_GameWalls
p2341
aVlL1rNUG_waterporn
p2342
aVT4beR3a_wallpapers
p2343
aV1fWRY5p_BotanicalPorn
p2344
aVWPu3gRO_wallpapers
p2345
aVQ7m5jpx_wallpapers
p2346
aV4M67Qgp_wallpapers
p2347
aV6gTIfRc_wallpapers
p2348
aVXJNzzbj_wallpapers
p2349
aVhF4Hqvm_wallpapers
p2350
aVEqlBZgR_wallpapers
p2351
aVNolOGP1_wallpapers
p2352
aVwWLHo5v_wallpapers
p2353
aVjyYeW23_wallpapers
p2354
aVQvdO4xB_wallpapers
p2355
aV2QWkV9F_wallpapers
p2356
aVJZXCSER_wallpapers
p2357
aVYOCMFvE_RoomPorn
p2358
aVAj2Zrpc_wallpapers
p2359
aVtIBAVmg_wallpapers
p2360
aVF9ZK8SA
p2361
aVDzCwClV_wallpapers
p2362
aVNppklQL_wallpapers
p2363
aV218qpvv_wallpapers
p2364
aVXQC2I0o_wallpapers
p2365
aVVG1bc3R_wallpapers
p2366
aVzWOM1x1_wallpapers
p2367
aV3eSuSW4_wallpapers
p2368
aVlw4wQg2_SkyPorn
p2369
aV6oisHwc_wallpapers
p2370
aVgJb7Tc1_wallpapers
p2371
aVeS6n0kd_wallpapers
p2372
aVKteszyz_wallpapers
p2373
aVI7cFZ7n_wallpapers
p2374
aVOanY8nN_AbandonedPorn
p2375
aVFyB7J5F_wallpapers
p2376
aViL5NtoB_wallpapers
p2377
aVD8Eu63u_wallpapers
p2378
aVBPr905K_wallpapers
p2379
aVHmjQ2tj_wallpapers
p2380
aVjWP94VQ_wallpapers
p2381
aVzsn58EW_SkyPorn
p2382
aVIdB04Ye_wallpapers
p2383
aVhHz5yff_wallpapers
p2384
aVKxpCERB_wallpapers
p2385
aVAKlWYt1_spaceporn
p2386
aVVgQnSEl_wallpapers
p2387
aVlcaGaAt_SkyPorn
p2388
aVL77QOsg_wallpapers
p2389
aVzUlrHMX_MilitaryPorn
p2390
aVHw9013i_wallpapers
p2391
aVZ1HbskK_wallpapers
p2392
aVHCvn6IJ_wallpapers
p2393
aV2oKmNKO_GameWalls
p2394
aVKEVetHX_wallpapers
p2395
aV9gf1Fnu_wallpapers
p2396
aV8ipfzmB_wallpapers
p2397
aV8oDaa86_wallpapers
p2398
aVkpltRhW_wallpapers
p2399
aVmNRyW9W_wallpapers
p2400
aVTCxFmSX_wallpapers
p2401
aVXueE5pj_SkyPorn
p2402
aVX9hxo9v_wallpapers
p2403
aVDvhVIjA_wallpapers
p2404
aVsvfIMFs_wallpapers
p2405
aV8V55F4X_wallpapers
p2406
aVtDV5fj7_wallpapers
p2407
aVvrfRrIA_wallpapers
p2408
aVHgl6Y1v_waterporn
p2409
aVqYzQjbY_wallpapers
p2410
aVG8I7LFm_wallpapers
p2411
aVU70icTg_wallpapers
p2412
aVIm9zPS2_wallpapers
p2413
aVgUgIrKb_wallpapers
p2414
aVq3mmx6i_wallpapers
p2415
aV2t2bBwn_wallpapers
p2416
aVEXn2mPt_wallpapers
p2417
aV6hDvpne_wallpapers
p2418
aVOqsoGra_wallpapers
p2419
aV4tUQZ9f_wallpapers
p2420
aVGuhTRv5_wallpapers
p2421
aVvkmGllp_wallpapers
p2422
aVaxFeMMR_wallpapers
p2423
aVuUbp5mq_wallpapers
p2424
aVwqBQjYh_wallpapers
p2425
aVRx8Vl90_wallpapers
p2426
aV8EDizjF_wallpapers
p2427
aVmkgJcYT_wallpapers
p2428
aV1KHELGA_wallpapers
p2429
aVqUFqkpt_wallpapers
p2430
aV3tyyMaE_spaceporn
p2431
aVYSpUQmL_wallpapers
p2432
aVGv4thY5_wallpapers
p2433
aVNp2DmSa_SkyPorn
p2434
aV2xothTQ_wallpapers
p2435
aV8Mn5uqZ_wallpapers
p2436
aV7MnVxiC_GameWalls
p2437
aVxukqJVK_wallpapers
p2438
aVeR3avln_SkyPorn
p2439
aV9wzM6so_wallpapers
p2440
aVtj5gRTl_wallpapers
p2441
aV94eUG69_wallpapers
p2442
aVwTHSuYo_wallpapers
p2443
aVWiKbyim_wallpapers
p2444
aV8tqi9CO_wallpapers
p2445
aV7nrQjcR_wallpapers
p2446
aVPhbn4SY_wallpapers
p2447
aV7TLI74d_wallpapers
p2448
aVRLU1EJz_wallpapers
p2449
aVnt6dD3p_spaceporn
p2450
aVazL8kng_wallpapers
p2451
aVp4Wr0ed_wallpapers
p2452
aV4olOn_BotanicalPorn
p2453
aVu4cHgY0_wallpapers
p2454
aVUlPa1nm_wallpapers
p2455
aVVEBWWYX_wallpapers
p2456
aV1TB4lCe_wallpapers
p2457
aVVG7y4on_waterporn
p2458
aVyRX1fjf_wallpapers
p2459
aVniSSJyg_wallpapers
p2460
aVRQ5BjY7_wallpapers
p2461
aV5ZZgFDA_wallpapers
p2462
aVO4Npf5B_wallpapers
p2463
aV146pAFf
p2464
aVjt5n2AE_SkyPorn
p2465
aVDc8SsjN_wallpapers
p2466
aVfmGuU6H_wallpapers
p2467
aVAAD1RXj_wallpapers
p2468
aVySbYou7_wallpapers
p2469
aVTGFIQVr_wallpapers
p2470
aVjCrw9UN_wallpapers
p2471
aVIMp4EiI_wallpapers
p2472
aVmN6pfYk_wallpapers
p2473
aVsog2l1B_wallpapers
p2474
aVv2oQCU9_wallpapers
p2475
aVZakwh0C_wallpapers
p2476
aVb9Ioq8F_wallpapers
p2477
aVrBkbXS3_SkyPorn
p2478
aVV41nGYS_waterporn
p2479
aVDwDQSTP_wallpapers
p2480
aVuEZf3Ee_wallpapers
p2481
aVtYxdCC3_wallpapers
p2482
aVpEaz2hT_wallpapers
p2483
aV7bMJa4c_SkyPorn
p2484
aV2Jmg7ex_wallpapers
p2485
aVoVihctG_AnimalPorn
p2486
aVk2hLGBM_BotanicalPorn
p2487
aVP03CowR_wallpapers
p2488
aVYlHubhb_wallpapers
p2489
aVMMCGWn6_wallpapers
p2490
aV7IkQaCu_wallpapers
p2491
aVHdaPP5z_DestructionPorn
p2492
aV8eUOSah_spaceporn
p2493
aVKRXMjxU_SkyPorn
p2494
aV0CRZdGt_wallpapers
p2495
aVt4Bb6xy_wallpapers
p2496
aVC1gBXyV_wallpapers
p2497
aVPNotxvI_wallpapers
p2498
aVuv3rD6a_wallpapers
p2499
aVouXreF2_wallpapers
p2500
aVeRDUJRj_wallpapers
p2501
aVNS8cdKW_wallpapers
p2502
aVM5Rb72c_wallpapers
p2503
aVl6HdaVm_wallpapers
p2504
aVTXwG4oL_wallpapers
p2505
aV6szx107_wallpapers
p2506
aVQRhi1Sv_BotanicalPorn
p2507
aV6ExKY4J_wallpapers
p2508
aVKphOenP_wallpapers
p2509
aVFsWpgG3_wallpapers
p2510
aVRgwnKOO_wallpapers
p2511
aVg5F4Hvs_wallpapers
p2512
aVysBqzMA_wallpapers
p2513
aVWq7ZfJa_wallpapers
p2514
aVCanXzPg_wallpapers
p2515
aVGpr3nen_wallpapers
p2516
aVX8gq67q_wallpapers
p2517
aV38ULdub_EarthPorn
p2518
aVkP63EEW_wallpapers
p2519
aVbxRle6r_wallpapers
p2520
aVND2dxUL_wallpapers
p2521
aVEj34RDK_wallpapers
p2522
aVHv0QX9T_wallpapers
p2523
aVkZHDoZy_wallpapers
p2524
aVVakWDPu_AbandonedPorn
p2525
aVfWgh751_wallpapers
p2526
aVWeWnoTY
p2527
aVgFzZMai_wallpapers
p2528
aVSOqu4vg_wallpapers
p2529
aVsFYYYjW_wallpapers
p2530
aVYFfIgja_wallpapers
p2531
aVGIHU7Ta_wallpapers
p2532
aVvSjay9B_wallpapers
p2533
aVBw9VYMY_wallpapers
p2534
aVShtkKUr_wallpapers
p2535
aVeWkokvA
p2536
aVjoaCfBQ_wallpapers
p2537
aVKGmBO8k_wallpapers
p2538
aVj8v1eYF_wallpapers
p2539
aV2JC0veT_wallpapers
p2540
aVtY6vNoi_wallpapers
p2541
aVrBCWLVH_wallpapers
p2542
aVq5yxQPu_wallpapers
p2543
aVFA89453_wallpapers
p2544
aVGY0IBoE_wallpapers
p2545
aVv1veL2h_SkyPorn
p2546
aV3auq8cD_wallpapers
p2547
aVLEiapC2_wallpapers
p2548
aVBprDRxp
p2549
aVCrnvh1g_wallpapers
p2550
aVsmSgUdE_SkyPorn
p2551
aVNVQ1nuu_wallpapers
p2552
aVYQQJ1yq_wallpapers
p2553
aVlcgqfvX_wallpapers
p2554
aVe2NAGIx_SkyPorn
p2555
aVY2NTPEK_wallpapers
p2556
aVLxpziMd_wallpapers
p2557
aVGHmiq74_wallpapers
p2558
aVvVAZ8Qm_wallpapers
p2559
aVVNM8AjE_wallpapers
p2560
aV1l6IJkg_wallpapers
p2561
aVElP1Y9D_spaceporn
p2562
aVlkxvL4i_wallpapers
p2563
aVZkWtPnW_wallpapers
p2564
aVVbyMReQ_wallpapers
p2565
aVqPCn1Yg_wallpapers
p2566
aVhHHIvPO_wallpapers
p2567
aVKgbKDAc_wallpapers
p2568
aVv5LseSA_BotanicalPorn
p2569
aVGlvQutc_wallpapers
p2570
aVVCkfkeE_wallpapers
p2571
aVDcyD6cQ_SkyPorn
p2572
aVSwQ9uNa_SkyPorn
p2573
aVn6iA5VK_wallpapers
p2574
aVQB132j0_waterporn
p2575
aV9alTUjt_wallpapers
p2576
aV55bxHuW_wallpapers
p2577
aV33EFwaf_SkyPorn
p2578
aVZP0ROan_SkyPorn
p2579
aVSuHCGGK_spaceporn
p2580
aVIHDJr3H_wallpapers
p2581
aVu56s7U6_wallpapers
p2582
aVDnnCGdC_wallpapers
p2583
aVzRmrWqU_wallpapers
p2584
aVgolrL4s_wallpapers
p2585
aVaoJ5dhD_waterporn
p2586
aVGaZz40A_wallpapers
p2587
aV5aIzh_wallpapers
p2588
aVISNAnKn_wallpapers
p2589
aVB4rxEmy_wallpapers
p2590
aVsJQx5fS_spaceporn
p2591
aVk5ptvZQ_wallpapers
p2592
aVCMJScpC_wallpapers
p2593
aVe2hO55w_SkyPorn
p2594
aVjuiIFAM_wallpapers
p2595
aVwkPrutE_wallpapers
p2596
aVNzwoL8O
p2597
aV7DKHCmV_BotanicalPorn
p2598
aVfyItvrG_wallpapers
p2599
aVeiKXUjJ_wallpapers
p2600
aVI4Fh8t2_wallpapers
p2601
aVkP8yAud_SkyPorn
p2602
aVJ6qDRpX_wallpapers
p2603
aVcc88WrF_waterporn
p2604
aVNPYbvDv_wallpapers
p2605
aVYAdCc0c_ImaginaryLandscapes
p2606
aV1xh5hIU_wallpapers
p2607
aVDCjqtUt_wallpapers
p2608
aV0MKOHV7_wallpapers
p2609
aVcVMWAiG_wallpapers
p2610
aVmWda35R_SkyPorn
p2611
aVo1od8nE_wallpapers
p2612
aV9tUnAzO_wallpapers
p2613
aVxNbntOG_wallpapers
p2614
aVzJXxilF_wallpapers
p2615
aVPkyUOG4_wallpapers
p2616
aVBsvHLZs_wallpapers
p2617
aVDZoPG81_wallpapers
p2618
aVDcIkwmb_SkyPorn
p2619
aVROEB179_AbandonedPorn
p2620
aVQcw7qOz_wallpapers
p2621
aVGmUGElN_waterporn
p2622
aVIqvJ9bZ_wallpapers
p2623
aVE2zAjfw_wallpapers
p2624
aVFikIp31_wallpapers
p2625
aVLQEnceh_wallpapers
p2626
aVUJjphFx_wallpapers
p2627
aV129hKR6_wallpapers
p2628
aVjN0telu_wallpapers
p2629
aVLJSOejt_wallpapers
p2630
aViQDjgju_wallpapers
p2631
aVwP4mthM_wallpapers
p2632
aVulADNsh_wallpapers
p2633
aVw2UnAOJ_wallpapers
p2634
aV2ZLRj3e_wallpapers
p2635
aVHh5t36j_wallpapers
p2636
aVtyGsm1d_wallpapers
p2637
aVifLUrDD_wallpapers
p2638
aVWyIeWHL_SkyPorn
p2639
aVzarIPAr_wallpapers
p2640
aViGVMIAl_wallpapers
p2641
aVOy0KrKH_wallpapers
p2642
aVOEYhh90_wallpapers
p2643
aVgmhy9sa_wallpapers
p2644
aVAOPLFzM_wallpapers
p2645
aVA8rbc73_BotanicalPorn
p2646
aV2joi7IU_wallpapers
p2647
aVRKcV5Ea_wallpapers
p2648
aV2j4zB2R_wallpapers
p2649
aV7hT5UzN_wallpapers
p2650
aV9LDPzGn_SkyPorn
p2651
aVUmTIc1t_wallpapers
p2652
aVCOVEcoV_wallpapers
p2653
aVO46pYCs_wallpapers
p2654
aVVx64bOm_wallpapers
p2655
aVozmMEZZ_wallpapers
p2656
aVkzqTDKG_wallpapers
p2657
aVgTC7O11_wallpapers
p2658
aVVZyiHbB_wallpapers
p2659
aVEHfL0cG_wallpapers
p2660
aVnqkJd81_wallpapers
p2661
aVZfwEUkz_wallpapers
p2662
aVpw6COJ5_SkyPorn
p2663
aVpzrzaAL_wallpapers
p2664
aVHxM2iYS_wallpapers
p2665
aVUieYv3Z_wallpapers
p2666
aVzTamtqq_waterporn
p2667
aVdJfnh55_wallpapers
p2668
aVV9gnCJw_wallpapers
p2669
aVjlgbTdX_wallpapers
p2670
aVxhGdTZr_wallpapers
p2671
aV1J8mHBE
p2672
aVMNmxJrh_wallpapers
p2673
aVh8kEmSy_wallpapers
p2674
aVKM7dpMx_wallpapers
p2675
aVsuIZCaG_SkyPorn
p2676
aVWqGlY9G_wallpapers
p2677
aVbEeYbAQ_SkyPorn
p2678
aVXO4mFUp_wallpapers
p2679
aVIAOkWMz_DesignPorn
p2680
aV5KQm5Y9_wallpapers
p2681
aV5SOmF7g_wallpapers
p2682
aVpVKfFmA_wallpapers
p2683
aVY9sDdp3_wallpapers
p2684
aVKfx5kH2_SkyPorn
p2685
aVs93U4Ze_wallpapers
p2686
aVG5oOlmM_FirePorn
p2687
aVT45MIhr_waterporn
p2688
aVjrEd9
p2689
aVL0wplpe_wallpapers
p2690
aVGwCk3ka_wallpapers
p2691
aVrttMhuG_wallpapers
p2692
aVCPexXX6_wallpapers
p2693
aVRemfyuh_wallpapers
p2694
aVOkDq4Wm_MilitaryPorn
p2695
aVNqg6QVg_wallpapers
p2696
aVIqjMPBo_wallpapers
p2697
aVbM7KWKh_wallpapers
p2698
aVw8eBv8k_GameWalls
p2699
aVyt86fMB_wallpapers
p2700
aVQpflPhd_wallpapers
p2701
aVnalmRKs_wallpapers
p2702
aVFXVEkiO_wallpapers
p2703
aVwKY050W_wallpapers
p2704
aVhRQWWkn_SkyPorn
p2705
aV0b8S0Te_wallpapers
p2706
aV4qBMzBM_wallpapers
p2707
aVuKTcKYL_wallpapers
p2708
aVTt1pRGu_wallpapers
p2709
aVoVihctG
p2710
aVxFpFQSt_MilitaryPorn
p2711
aV0iop0cP
p2712
aVbCA75rq_wallpapers
p2713
aVkEbsLC2_wallpapers
p2714
aVX7HXdMe_wallpapers
p2715
aVDUYmNJ4_wallpapers
p2716
aVd0IFpMt_wallpapers
p2717
aV3U349gH_wallpapers
p2718
aVy7foESR_wallpapers
p2719
aVy6dj7dw_wallpapers
p2720
aVLvzTlqe_wallpapers
p2721
aVagUkkEi_wallpapers
p2722
aVfy3R6Ta_wallpapers
p2723
aVJ6MeL17_wallpapers
p2724
aVFalHKb1_wallpapers
p2725
aVSulXOTw_wallpapers
p2726
aVj0kP72Y_wallpapers
p2727
aVuc52mfo_wallpapers
p2728
aVxvu6908_SkyPorn
p2729
aVQypfZEH_wallpapers
p2730
aVZ3LzzaH_wallpapers
p2731
aV1PaqDmR_wallpapers
p2732
aVaIY2cfu_wallpapers
p2733
aV9qi8mJt_RoomPorn
p2734
aVVKd8a8u_wallpapers
p2735
aVAIlszwp_wallpapers
p2736
aVqinC7c1_wallpapers
p2737
aVnEZVy4H_wallpapers
p2738
aV41WBOVX_wallpapers
p2739
aVWN7tT8Y_CityPorn
p2740
aV3MmG0Uz_wallpapers
p2741
aVJA9O4Jd_BotanicalPorn
p2742
aVOAsZwoi_MilitaryPorn
p2743
aVZRXyV0y_wallpapers
p2744
aVpXxnwMp_wallpapers
p2745
aV7QoCJIh_wallpapers
p2746
aVveTieE0_wallpapers
p2747
aVRepProd_wallpapers
p2748
aVkUHUxGY_wallpapers
p2749
aVHcXEMzB_wallpapers
p2750
aVbHkIXo4_wallpapers
p2751
aV7A2xbOO_wallpapers
p2752
aVSMksfyq_wallpapers
p2753
aVMC9gTFx
p2754
aVT7qJqDd_wallpapers
p2755
aVZJ4Q2I9_wallpapers
p2756
aVyGs0vRG_wallpapers
p2757
aVrolgnfE_SkyPorn
p2758
aVYF7sqFs
p2759
aVPJ4sJ3I_DesignPorn
p2760
aV9UBhQKy_MilitaryPorn
p2761
aVvHCvTjZ_wallpapers
p2762
aVWmJfLsL_wallpapers
p2763
aVlc075QY
p2764
aVgExzIT1_wallpapers
p2765
aVMHp3Vma_SkyPorn
p2766
aVd4ZFmgh_BotanicalPorn
p2767
aVRJj6fDa_wallpapers
p2768
aVoPorh0r_wallpapers
p2769
aVUnoTW6R_wallpapers
p2770
aV1x13L5N_wallpapers
p2771
aVlAHcloj_wallpapers
p2772
aV3XgkyiH_wallpapers
p2773
aV22QV4Md_wallpapers
p2774
aVFmpM0zB_wallpapers
p2775
aVI9yclbQ_wallpapers
p2776
aVSM1sC1z_wallpapers
p2777
aV2ziIn4V_wallpapers
p2778
aVncgAg7b_wallpapers
p2779
aV7F6TcYq_wallpapers
p2780
aVZvbK95T_GeekPorn
p2781
aV4Jepj8t_spaceporn
p2782
aV8MkfNUh_wallpapers
p2783
aVapCm4OV_CityPorn
p2784
aV4bGKhsW_wallpapers
p2785
aV7iHuQ8w_wallpapers
p2786
aVH8hlg7a_wallpapers
p2787
aVvf8tiPb_wallpapers
p2788
aV3sqhyeb_wallpapers
p2789
aV7Qx0OOO_wallpapers
p2790
aVnPrqpJK_wallpapers
p2791
aVaPggMtQ_wallpapers
p2792
aVJT4EGKy_wallpapers
p2793
aVYs7AcP6_wallpapers
p2794
aVUgRXqw4_wallpapers
p2795
aVrgI62pp_wallpapers
p2796
aV7Rh24XJ_wallpapers
p2797
aVK6zD92G_wallpapers
p2798
aVfYweGh4_wallpapers
p2799
aVBwN3fn5_wallpapers
p2800
aV3BDJez3_wallpapers
p2801
aVpijWT65_wallpapers
p2802
aVTr3fRlb_wallpapers
p2803
aVPCQbdKi_wallpapers
p2804
aVR3NPKET_wallpapers
p2805
aVP1Knsgb_wallpapers
p2806
aVmcwFWmo_wallpapers
p2807
aVnhwk1mg_wallpapers
p2808
aVvNSnXBc_wallpapers
p2809
aVQ8heSfV_GameWalls
p2810
aVSHeaxhR_wallpapers
p2811
aVPoFz4NN_wallpapers
p2812
aVRr3MKPh_wallpapers
p2813
aVzUlrHMX
p2814
aVNFf6Zv7_wallpapers
p2815
aVGs3vEb6_wallpapers
p2816
aVDFmpsbr_wallpapers
p2817
aVH9PmJKZ_waterporn
p2818
aVObvCLeV_wallpapers
p2819
aVGnK6DBI_wallpapers
p2820
aVNFkqxKA_waterporn
p2821
aVmrTM3Bb_DesignPorn
p2822
aVewfHPSI_wallpapers
p2823
aVvgSbRv7_wallpapers
p2824
aVl5zWkAH_wallpapers
p2825
aVR37TJ1b_wallpapers
p2826
aVuIy6AjH_wallpapers
p2827
aVuvfB3b3_wallpapers
p2828
aVbosuTtA_wallpapers
p2829
aVnTQqZGE_wallpapers
p2830
aVomVjm5g_BotanicalPorn
p2831
aVz7tqaY3_wallpapers
p2832
aVOTifyqq_wallpapers
p2833
aVAWST3PT_waterporn
p2834
aV213cz42_wallpapers
p2835
aVASRlGr2_wallpapers
p2836
aVVZrnFWr_wallpapers
p2837
aV0ID8EJd_wallpapers
p2838
aVNqOKXPr_wallpapers
p2839
aVXyw3Xpi_wallpapers
p2840
aVcPILP4Q_MachinePorn
p2841
aViTCM0DW_wallpapers
p2842
aVSa4JCn9_GameWalls
p2843
aVYqfcTDq_wallpapers
p2844
aVSDOKTY0_wallpapers
p2845
aVyAf4OsW_wallpapers
p2846
aVNP3DBVJ_wallpapers
p2847
aVxIX0J90_wallpapers
p2848
aVt4bRrFe_wallpapers
p2849
aV2Lcd3j1_wallpapers
p2850
aVN7GhTfQ_wallpapers
p2851
aVbxsDqEi_wallpapers
p2852
aV7Xdh3ol_wallpapers
p2853
aVUUOeW6O_wallpapers
p2854
aVr4OXnNo_wallpapers
p2855
aVR3nzxis_wallpapers
p2856
aVaggyZsw_wallpapers
p2857
aVukakFAY_wallpapers
p2858
aVacjpmw4_wallpapers
p2859
aVnTCMoAr_wallpapers
p2860
aVqi4p0xq_waterporn
p2861
aVHArNZK5_wallpapers
p2862
aVZ9twUnQ_wallpapers
p2863
aVz42I4oG_wallpapers
p2864
aVHdAj1TE_wallpapers
p2865
aVnP9c7qO_wallpapers
p2866
aV0XY8wZT_wallpapers
p2867
aV1hAmVHk_wallpapers
p2868
aVkJcYZsI_spaceporn
p2869
aVqwrfCWq_wallpapers
p2870
aVM86F1nG_wallpapers
p2871
aVwNRpDCN_wallpapers
p2872
aVHZQuOgx_wallpapers
p2873
aVL1N49wh_MilitaryPorn
p2874
aVbWR2QWY_wallpapers
p2875
aVOqKxyfd_wallpapers
p2876
aVE3mcx50_wallpapers
p2877
aVvH60A2O
p2878
aVq7K7y8B_wallpapers
p2879
aVR2MvQxc_wallpapers
p2880
aVFPtzDNr_wallpapers
p2881
aV0uCOGpy_wallpapers
p2882
aVCPSP1Kb_wallpapers
p2883
aVuJvFnqb_wallpapers
p2884
aVW7hBQYv_MilitaryPorn
p2885
aVZigXtRx_wallpapers
p2886
aVRExr1nH_SkyPorn
p2887
aVrkqZ3FJ
p2888
aViWckQ0w_wallpapers
p2889
aV4hRC26T_wallpapers
p2890
aV8k4MWse_wallpapers
p2891
aVbhBCgKL_wallpapers
p2892
aVrPQSRp6_wallpapers
p2893
aVEVWHAC7_wallpapers
p2894
aVe01k2zC
p2895
aVMY0JyiQ_wallpapers
p2896
aVbFU9Tla_spaceporn
p2897
aVEcv3pjE_wallpapers
p2898
aVVMSYrvM_wallpapers
p2899
aV61AzpCL_BotanicalPorn
p2900
aVodeNntm_wallpapers
p2901
aVFxqJL9E_spaceporn
p2902
aVJiinGwq_wallpapers
p2903
aVPFl9cay_wallpapers
p2904
aVsb2VS8w_waterporn
p2905
aVCNhd1zV_wallpapers
p2906
aVLFTeATc_wallpapers
p2907
aV0p57XY1_wallpapers
p2908
aVFZDjuMz_spaceporn
p2909
aVVTUSp1J_wallpapers
p2910
aV8DtvYY1_wallpapers
p2911
aVugVt8E5_wallpapers
p2912
aVDP1wHR5_wallpapers
p2913
aVNm6qhdJ_wallpapers
p2914
aVxkHMSwq_wallpapers
p2915
aVOoXLUIE_wallpapers
p2916
aV6PgL9cK_wallpapers
p2917
aV6uW3jWg_wallpapers
p2918
aVn7b4e9V_wallpapers
p2919
aVsUt1Nq8_DesignPorn
p2920
aVq2Qg4iF_wallpapers
p2921
aVIQKWA5L_wallpapers
p2922
aV5Wwg42d_wallpapers
p2923
aVHIitJ3G_wallpapers
p2924
aVllZM5XH_wallpapers
p2925
aVTF7aPDN_GameWalls
p2926
aVCWbG6vx_wallpapers
p2927
aVPqk8lpL_waterporn
p2928
aVhi88myx_wallpapers
p2929
aVSFmm9Zc_wallpapers
p2930
aVdFqkxMA_wallpapers
p2931
aVNQEQDCc_MilitaryPorn
p2932
aVzAlxpop_wallpapers
p2933
aVOSFfdbr_wallpapers
p2934
aVKLS3JIq_wallpapers
p2935
aVRKC9bAz_wallpapers
p2936
aV3OB9Avw_wallpapers
p2937
aVmMz7Tlu_wallpapers
p2938
aVfGcEFu5_wallpapers
p2939
aVrXfsz0P_wallpapers
p2940
aVYGjzSk7_BotanicalPorn
p2941
aVnmrJjCV_wallpapers
p2942
aVNIrBc6j_DesignPorn
p2943
aVhyUSPpU_wallpapers
p2944
aViZRA9uc_SkyPorn
p2945
aVZajeDXg_MachinePorn
p2946
aVY1ZjXGx_wallpapers
p2947
aVrahgUOV_wallpapers
p2948
aVnisC6yC_wallpapers
p2949
aV5LdF4vc_wallpapers
p2950
aVliAiJQT_wallpapers
p2951
aVxc7Xy09_wallpapers
p2952
aVIE4j9ps_AlbumArtPorn
p2953
aVZITOTlQ_wallpapers
p2954
aVaK5WkoI_wallpapers
p2955
aV3vLRpzO_wallpapers
p2956
aVQ4Mzvrm_wallpapers
p2957
aVUS4AAv7_wallpapers
p2958
aV2guUAF0_wallpapers
p2959
aV3MpMsoI_waterporn
p2960
aVKRV5LsH_wallpapers
p2961
aVCEReP2h_wallpapers
p2962
aV3fb0qJM_wallpapers
p2963
aVJtmaSVn_CityPorn
p2964
aVCUdGkJf_wallpapers
p2965
aVvf0Kdbo_wallpapers
p2966
aVVyabhCN_wallpapers
p2967
aVUB4tWsM_wallpapers
p2968
aVwbdE2aa_wallpapers
p2969
aVxdh5sOD_wallpapers
p2970
aVxVxh74v_waterporn
p2971
aVWT64kCt_SkyPorn
p2972
aV4uDEI2W_wallpapers
p2973
aVHeh87Z5_spaceporn
p2974
aVhUKRo5I_wallpapers
p2975
aV9mdriQK_BotanicalPorn
p2976
aV33HvHKi_wallpapers
p2977
aVXPIdF8d_GameWalls
p2978
aVDUXiqJz_wallpapers
p2979
aVtYajSO6_wallpapers
p2980
aVk6b0A9w_wallpapers
p2981
aV8lJnyFF_wallpapers
p2982
aVC5xp9Et_SkyPorn
p2983
aVzpdfSuZ_BotanicalPorn
p2984
aVt8l9l6s_wallpapers
p2985
aVX6k5dgn_SkyPorn
p2986
aVAg453Gz_wallpapers
p2987
aVKBBeUTZ_wallpapers
p2988
aVHYBYX9n_wallpapers
p2989
aVs9ppWcZ_BotanicalPorn
p2990
aVP5unQL2_SkyPorn
p2991
aVuzpLjh0_wallpapers
p2992
aVwnBKs23_wallpapers
p2993
aVn5Pj4RC_BotanicalPorn
p2994
aVJhyLnC6_SkyPorn
p2995
aVGGoUl7P_wallpapers
p2996
aVNEhTW6P_wallpapers
p2997
aV0oEUME2_wallpapers
p2998
aVjVmRfKB_wallpapers
p2999
aVLP0PytJ_wallpapers
p3000
aVUIFM2VN_wallpapers
p3001
aV8ooigHM_wallpapers
p3002
aVSoJW7Au_wallpapers
p3003
aVar9eGcx_waterporn
p3004
aVDWMRBOM_BotanicalPorn
p3005
aVja1up1V_DesignPorn
p3006
aVkxrs7Iz_wallpapers
p3007
aVvMg3DrD
p3008
aVrlyH9im_wallpapers
p3009
aVFzPtoCH_wallpapers
p3010
aV5RUhdyF_BotanicalPorn
p3011
aV8sebUV9_wallpapers
p3012
aVbDQUms0_wallpapers
p3013
aVssKOWcH_DesignPorn
p3014
aVVfe45aK_wallpapers
p3015
aVxMnRR3g_wallpapers
p3016
aVvNWMq3G_wallpapers
p3017
aVfJTSpeF_wallpapers
p3018
aVALZu5Wd
p3019
aVw4fYeGT_SkyPorn
p3020
aV8geaZSJ_wallpapers
p3021
aVTETRyWG_wallpapers
p3022
aVXX8QXFJ_wallpapers
p3023
aVw7DqPDN_spaceporn
p3024
aV1s0yjfG_MilitaryPorn
p3025
aVZPn79Lb_wallpapers
p3026
aVDzopj4f_wallpapers
p3027
aVJtmaSVn
p3028
aVZckQog3_wallpapers
p3029
aVJn6jJ6U_SkyPorn
p3030
aVr2lxeYc_wallpapers
p3031
aVJXKiMfe_wallpapers
p3032
aVRSoSiBI_BotanicalPorn
p3033
aV5zVZnhd_wallpapers
p3034
aV1cgUlTL_wallpapers
p3035
aVBr37rr1_wallpapers
p3036
aVG9SGv5L_wallpapers
p3037
aV7NlZCSJ_wallpapers
p3038
aV019iZSf_SkyPorn
p3039
aVv5wY9zx_BotanicalPorn
p3040
aV6uATAyr_BotanicalPorn
p3041
aVRkHrjDv_wallpapers
p3042
aVsFuWbw2
p3043
aVV4g8s9n_wallpapers
p3044
aVtDFWZaS_SkyPorn
p3045
aVRHKzeRc_wallpapers
p3046
aViAyvIU8_wallpapers
p3047
aVEIW8WNS_SkyPorn
p3048
aVjs3vElF_wallpapers
p3049
aVMUu8eS7_wallpapers
p3050
aVA6TA9FR_wallpapers
p3051
aVMBZiiPL_wallpapers
p3052
aVrxVVidY_wallpapers
p3053
aVOaJKkWA_wallpapers
p3054
aVxqmcJxS_wallpapers
p3055
aVfScZE6x_wallpapers
p3056
aV7KInljg_SkyPorn
p3057
aVGraRBln_wallpapers
p3058
aVyASWLzP
p3059
aV9CLTJlV_wallpapers
p3060
aVKOSfHis_wallpapers
p3061
aVRBRtRxb_wallpapers
p3062
aVlt0FbAe_MilitaryPorn
p3063
aVRZXBEGp_wallpapers
p3064
aVIwpFQxo_wallpapers
p3065
aVCWpcjym_wallpapers
p3066
aVd8nR0WC_wallpapers
p3067
aVr9GCDgH
p3068
aVHzDDY6x_spaceporn
p3069
aVoBffZmu_MilitaryPorn
p3070
aVOSe6pSI_wallpapers
p3071
aVLtcco4y_wallpapers
p3072
aVEMFc814_wallpapers
p3073
aVfvDc99N_wallpapers
p3074
aVj500GDw_GameWalls
p3075
aVkGoSi9x_wallpapers
p3076
aVTBAX15h_wallpapers
p3077
aVTzVc6VX_SkyPorn
p3078
aV6BxoY1g_wallpapers
p3079
aVgZi9A8y_BotanicalPorn
p3080
aVOWgfgHa_BotanicalPorn
p3081
aVpiloo4E_wallpapers
p3082
aVt4mKTrt_wallpapers
p3083
aVZB2oKHJ_wallpapers
p3084
aVsDVNviK_wallpapers
p3085
aVu6wywAk_wallpapers
p3086
aVyZ2GvfK_wallpapers
p3087
aVsUHQeKy_wallpapers
p3088
aVmnMOxi6_wallpapers
p3089
aVSubL6DI_SkyPorn
p3090
aV8oCqVs4_wallpapers
p3091
aVm6AGMCU_wallpapers
p3092
aVSPNRqzl_VillagePorn
p3093
aVRAGiiky
p3094
aVzJIAXlb_wallpapers
p3095
aV2nRCXFR_wallpapers
p3096
aV2SfsWxy_wallpapers
p3097
aVZaV09WT_wallpapers
p3098
aVJjcRpgD_wallpapers
p3099
aVmB0WJH7_wallpapers
p3100
aVN86AmMN_SkyPorn
p3101
aVyOd7Mp4_wallpapers
p3102
aVfBipfeX_wallpapers
p3103
aVWWXwzKT_wallpapers
p3104
aViqLgEOv_wallpapers
p3105
aVMoKZ1u3_wallpapers
p3106
aVef0OHTm_DesignPorn
p3107
aVx4zM2hi_wallpapers
p3108
aVHvMOuUT_wallpapers
p3109
aVaKl0xOH_wallpapers
p3110
aV1ZlHr67_wallpapers
p3111
aVCbTSYV7
p3112
aVbT0Y2ot_wallpapers
p3113
aVyDMwQa9_wallpapers
p3114
aVcveIJis_wallpapers
p3115
aVDFNNvGd_wallpapers
p3116
aVQtjAvjr_wallpapers
p3117
aVCTS2LcE_BotanicalPorn
p3118
aVPrpmZJw_wallpapers
p3119
aVB7mXmaQ_wallpapers
p3120
aVsc35pwY_wallpapers
p3121
aVAISaYSi_wallpapers
p3122
aVETfbKAh_wallpapers
p3123
aVQIjgQzC_wallpapers
p3124
aVrh89XS3_wallpapers
p3125
aVOccTRQe_wallpapers
p3126
aVqYuqzya_wallpapers
p3127
aVgG1u2Rb_wallpapers
p3128
aVcCztXGj_wallpapers
p3129
aVgQRRJxU
p3130
aVlM57Jcn_wallpapers
p3131
aV4Szd7Jt_wallpapers
p3132
aV470eVId_wallpapers
p3133
aVtlj1AGn_wallpapers
p3134
aV6WFI1Pa_wallpapers
p3135
aVdmzAmHf_wallpapers
p3136
aVlWq77Au_wallpapers
p3137
aV73ylCkH_DesignPorn
p3138
aVeg5j9Vg_wallpapers
p3139
aVWiB54cF_wallpapers
p3140
aVmpFt07n
p3141
aVjkUdyHJ_spaceporn
p3142
aVDgM632C
p3143
aVDXQDfK9_wallpapers
p3144
aVBAkAFGy_wallpapers
p3145
aVUUOb3UC_wallpapers
p3146
aV28PXQ1U_wallpapers
p3147
aV8poHhhi_SkyPorn
p3148
aVvxLsWOa_wallpapers
p3149
aVyckosUI_wallpapers
p3150
aVOeYpdDS
p3151
aVpc1eSUh_wallpapers
p3152
aVia0g2HH_MilitaryPorn
p3153
aVtjTu2sv_wallpapers
p3154
aV9z04Fl2_wallpapers
p3155
aVYdHJLOw_wallpapers
p3156
aV51hOw5a_wallpapers
p3157
aV7ToP6Js_FirePorn
p3158
aVf5dR3O0_wallpapers
p3159
aVAwwXpIJ
p3160
aVVVfaMMJ_SkyPorn
p3161
aVNnhSckR_GameWalls
p3162
aVlw4rjEl_wallpapers
p3163
aVcw6bLM3_MilitaryPorn
p3164
aV47tL8Nk_wallpapers
p3165
aV81lE7Yg_wallpapers
p3166
aVN2dFcAf_spaceporn
p3167
aVhxChlf9_wallpapers
p3168
aV6lJU1ss_wallpapers
p3169
aV6jgkb1s_wallpapers
p3170
aVc0Pd3nk_wallpapers
p3171
aVS5q24gs_wallpapers
p3172
aVfHZ3mN9_wallpapers
p3173
aVYqJdiob_spaceporn
p3174
aVyvFfTkN_wallpapers
p3175
aVnbLGh0n_wallpapers
p3176
aVEeV1VrO
p3177
aVGSmY8Kj_wallpapers
p3178
aVPW4yNXw_SkyPorn
p3179
aVQDZTCOs_wallpapers
p3180
aVkzygF2T_wallpapers
p3181
aV8Hs2qZy_wallpapers
p3182
aVPPb9ocy_RoomPorn
p3183
aVQFGWIDc_wallpapers
p3184
aV3bpf4M1_wallpapers
p3185
aVHsRRNVu_wallpapers
p3186
aV147PmKT_MilitaryPorn
p3187
aVGfEdJNO_SkyPorn
p3188
aV49HYH3E_wallpapers
p3189
aVyblYaBm_wallpapers
p3190
aVFDm4vOL_wallpapers
p3191
aVpjnFP_spaceporn
p3192
aVD0EwQkv_wallpapers
p3193
aVBIzIVU5_wallpapers
p3194
aVhcPTysY_wallpapers
p3195
aVxqEMRVJ_wallpapers
p3196
aVRkgYKk6_AnimalPorn
p3197
aV5yJwhU9_wallpapers
p3198
aVZcLdUwj_wallpapers
p3199
aVieT1VOZ_wallpapers
p3200
aVQvRxUma_wallpapers
p3201
aVXYGYDaM_wallpapers
p3202
aVhaZ1Aip_wallpapers
p3203
aV66xo2qS_wallpapers
p3204
aVFV1xJxQ_wallpapers
p3205
aVtnnw3uw_wallpapers
p3206
aVeKpDkHq_wallpapers
p3207
aV8egQgUg_BotanicalPorn
p3208
aV2Qe8MyI_wallpapers
p3209
aVW2fuZGw_spaceporn
p3210
aVymejfML_spaceporn
p3211
aVsKkPMxR_wallpapers
p3212
aVT108Cg6_wallpapers
p3213
aVUDNy566_wallpapers
p3214
aVt6PPCO3_wallpapers
p3215
aVdP3yQCr_spaceporn
p3216
aVThDLxEW_wallpapers
p3217
aVdIPnwCV_wallpapers
p3218
aVtg0CLKS_wallpapers
p3219
aV2Tm44xw_SkyPorn
p3220
aVzT3M69U_wallpapers
p3221
aV65apCGf_wallpapers
p3222
aVWgGwW1c
p3223
aVikvbkfw
p3224
aV7f57NoI_wallpapers
p3225
aVEMEA8dX_wallpapers
p3226
aVYH3NGt1_wallpapers
p3227
aVwTZs70h_wallpapers
p3228
aVz2SDWgf
p3229
aVYvncQQD_wallpapers
p3230
aVjmgcjYw_wallpapers
p3231
aV3D7AizH_wallpapers
p3232
aVqRfco62_wallpapers
p3233
aVINrQKXj_waterporn
p3234
aVGFGfQ5B_wallpapers
p3235
aVMLMyhVC_wallpapers
p3236
aV2nbwuSA_waterporn
p3237
aVwhvFNKF_wallpapers
p3238
aVbdWJtPH_BotanicalPorn
p3239
aVwbJyKbm_wallpapers
p3240
aVmQAtXAT_wallpapers
p3241
aVwqUi4dE_wallpapers
p3242
aVXVvWb0x_wallpapers
p3243
aVnxj7tKd_wallpapers
p3244
aV1SOIoNp
p3245
aV71hZANZ_wallpapers
p3246
aVJkXBbfL_wallpapers
p3247
aVbBEGMsk_wallpapers
p3248
aVwrfXXdi_wallpapers
p3249
aVp4JUZpb_SkyPorn
p3250
aVL2UtBeb_wallpapers
p3251
aVZEWcNQC_wallpapers
p3252
aVbgFwWKQ
p3253
aVSNHL92k_wallpapers
p3254
aV2oDJXyh_wallpapers
p3255
aVbgiSUlI_wallpapers
p3256
aV35rcICd_wallpapers
p3257
aVXjvISKb_wallpapers
p3258
aV3AXDRQF_wallpapers
p3259
aVYlaeXHw_wallpapers
p3260
aVQmdApbO_wallpapers
p3261
aVJdTEJ9D_wallpapers
p3262
aVWDytYmz_wallpapers
p3263
aV8q0tR6c_FirePorn
p3264
aVMEkvJRM_SkyPorn
p3265
aV0s4vivP_wallpapers
p3266
aVWTaOxUN_wallpapers
p3267
aV7PdwOSZ_QuotesPorn
p3268
aVpW2VujT_wallpapers
p3269
aVD0oAcEf_wallpapers
p3270
aVAQv9ODq_wallpapers
p3271
aV5bMqBCL_wallpapers
p3272
aVPoOMwEW_wallpapers
p3273
aVL7Gmwt6_wallpapers
p3274
aVjrXwIpJ_wallpapers
p3275
aVbYc56u2_wallpapers
p3276
aVpfAmwWP_wallpapers
p3277
aVU11F4dS_CityPorn
p3278
aVnBV2Wrn_wallpapers
p3279
aVLde3xW4_BotanicalPorn
p3280
aVX0sd0Ho_wallpapers
p3281
aVr5zX90v_wallpapers
p3282
aVKwgo6Lx
p3283
aVeqWQgFD_BotanicalPorn
p3284
aVSfitfpQ_wallpapers
p3285
aV3S4ujCf_BotanicalPorn
p3286
aVxPMmfBK_wallpapers
p3287
aVWJgHQZY_wallpapers
p3288
aVflmhIuG_wallpapers
p3289
aV1xgJ3B5_DesignPorn
p3290
aVyr4jCTG_wallpapers
p3291
aVQOSY8Si_wallpapers
p3292
aVi7WqK36_SkyPorn
p3293
aVFuMtzTY_waterporn
p3294
aVAfWURkL_wallpapers
p3295
aVF43N7dc_MilitaryPorn
p3296
aVMBKhUvR_wallpapers
p3297
aV38ULdub
p3298
aVv3lD28v_wallpapers
p3299
aVvFIww5E
p3300
aVsvxjwVY_wallpapers
p3301
aVWSJlSdm_spaceporn
p3302
aV7QMLmXb_wallpapers
p3303
aVxujVlbi_wallpapers
p3304
aVZDUqMAN_waterporn
p3305
aVnZ9uPiM_wallpapers
p3306
aVFPx5aMb_wallpapers
p3307
aVl3qwUp5_spaceporn
p3308
aVQ8OP85c_wallpapers
p3309
aVVK2ZhM9_wallpapers
p3310
aVuaEnJbQ_wallpapers
p3311
aV68TLFiz_wallpapers
p3312
aV5Hc1RMZ_wallpapers
p3313
aV5SWB8aK_wallpapers
p3314
aVYg4mRvm_wallpapers
p3315
aVMeN9VXg_wallpapers
p3316
aVCjKRjUy_wallpapers
p3317
aVm4pYP1t_wallpapers
p3318
aVIljwS8n_SkyPorn
p3319
aV497FcM5_wallpapers
p3320
aVLYQmRnv_wallpapers
p3321
aVkT4BZIr_wallpapers
p3322
aVzf8vuMA_wallpapers
p3323
aVloVl15B_wallpapers
p3324
aVzBFbYDW_wallpapers
p3325
aVmPbVkVm_wallpapers
p3326
aVnCE1ZjE_MilitaryPorn
p3327
aVao5Ud8d_wallpapers
p3328
aVUnSVlby_wallpapers
p3329
aVnZyHoSx_wallpapers
p3330
aVxT4AEFT_wallpapers
p3331
aV7TpmB2G_wallpapers
p3332
aVc8VHhLm_wallpapers
p3333
aViuagilD_wallpapers
p3334
aVDh9rdvk_wallpapers
p3335
aVpN45rCg_wallpapers
p3336
aVQokZbYD_wallpapers
p3337
aV5OgRPzX_wallpapers
p3338
aVrEYkJmq_wallpapers
p3339
aV1ft00Ux_DestructionPorn
p3340
aVC4nsGct_wallpapers
p3341
aVU2MPHO6_SkyPorn
p3342
aV4oe1zyP_wallpapers
p3343
aVTcQGvum_wallpapers
p3344
aV82W0AZx_wallpapers
p3345
aV7AVzu3m_SkyPorn
p3346
aVB63GSni_wallpapers
p3347
aVH1eQltx_wallpapers
p3348
aVnPLRR44_SkyPorn
p3349
aVE4SUYOz_wallpapers
p3350
aVqQUqH5B_wallpapers
p3351
aVXetnQmB_spaceporn
p3352
aV65cF7qL_wallpapers
p3353
aViLeUaAg_wallpapers
p3354
aVaFgR1M7_wallpapers
p3355
aVVgGFLeX_QuotesPorn
p3356
aV0MmmIMC_wallpapers
p3357
aVncLtUNa_wallpapers
p3358
aVH3bVKKW_wallpapers
p3359
aVwUWHoKd
p3360
aVNMRD7SD_wallpapers
p3361
aVkd3skQM_wallpapers
p3362
aVJGBHQcM_wallpapers
p3363
aVDchEmkp_wallpapers
p3364
aVO55PiTP_SkyPorn
p3365
aVgwwZng5_wallpapers
p3366
aVGnCbTbd_wallpapers
p3367
aVSuLbMJB_wallpapers
p3368
aVE9nRqt6_wallpapers
p3369
aVMuJn4jW_SkyPorn
p3370
aVdf2xKf3_spaceporn
p3371
aVflYQgT9_SkyPorn
p3372
aVpyEouwA_waterporn
p3373
aVTbe6X0d_wallpapers
p3374
aVkVdlFSG_GameWalls
p3375
aVbRjuYnw_wallpapers
p3376
aVA3cqnOn_wallpapers
p3377
aVTsPHsvU_wallpapers
p3378
aVlYzXL9z_wallpapers
p3379
aVWlCSb0m_wallpapers
p3380
aVtCkirwz_SkyPorn
p3381
aVU0ZwqyL_wallpapers
p3382
aVmsGNqEN_wallpapers
p3383
aVz6XOKrQ_GameWalls
p3384
aV6IWNe1B_SkyPorn
p3385
aVdiOkvYD_wallpapers
p3386
aVRgtSUa4_wallpapers
p3387
aV34UuzH2_SkyPorn
p3388
aVCfrRvFZ_wallpapers
p3389
aVzBi3pXV_wallpapers
p3390
aVDfX5BA5_wallpapers
p3391
aVcwvWhmv_wallpapers
p3392
aV7U28T80_wallpapers
p3393
aVExKpX2w_wallpapers
p3394
aVWnoJUnz_SkyPorn
p3395
aV2EIlc8e_wallpapers
p3396
aVJG1SwTA_wallpapers
p3397
aVCKio2zD_wallpapers
p3398
aVxSECv42_wallpapers
p3399
aVSJXeLgG_wallpapers
p3400
aVyhhW0Hs_GameWalls
p3401
aVlxPcK8o_wallpapers
p3402
aVvrZMQEp_wallpapers
p3403
aVV7DCJsJ_wallpapers
p3404
aVqzLcTOR_GameWalls
p3405
aVHxbEjBb_wallpapers
p3406
aVajennp2_wallpapers
p3407
aVJSHuIa0
p3408
aVjER0I53_wallpapers
p3409
aVWjzdvlT_SkyPorn
p3410
aVRxitwUN
p3411
aVNrqPcVI_wallpapers
p3412
aVt7ariay_wallpapers
p3413
aVzrLWM8h_wallpapers
p3414
aV8rxjqv6_wallpapers
p3415
aVWhfWrXR_wallpapers
p3416
aVsNeEj2b_wallpapers
p3417
aViA4Jhmh_SkyPorn
p3418
aVyRcZ1d3_waterporn
p3419
aVE9Kh1LE_wallpapers
p3420
aVbTBFlpd_GameWalls
p3421
aVY5uu2tg_SkyPorn
p3422
aVlgX00TV_wallpapers
p3423
aVYU5FPws
p3424
aVu0EP1ux_wallpapers
p3425
aVKFNsib1_wallpapers
p3426
aVFSbgenR_wallpapers
p3427
aVIiRTMYu_wallpapers
p3428
aVvDBMdGX_wallpapers
p3429
aVui8dWk9_GameWalls
p3430
aVZqoJCWh_wallpapers
p3431
aVEYCNuYs_wallpapers
p3432
aVFMMVO2z_wallpapers
p3433
aVUFCUm9J_wallpapers
p3434
aVVrtYTWD_wallpapers
p3435
aVhk26STe_wallpapers
p3436
aV6Uacikt_wallpapers
p3437
aVgHtbHkS_wallpapers
p3438
aVzVqtrpe
p3439
aVTTmPnSq_wallpapers
p3440
aVdYf643D_waterporn
p3441
aVj85k2rl_wallpapers
p3442
aV7c5oNuv_wallpapers
p3443
aVfht20oU_wallpapers
p3444
aVwrt0fYQ_wallpapers
p3445
aVzV0cZZQ_wallpapers
p3446
aV2bqKL6N_wallpapers
p3447
aVoZncTwT_wallpapers
p3448
aVLSpf9ey_spaceporn
p3449
aVcMPDtBA_wallpapers
p3450
aVbAj0teN_wallpapers
p3451
aVQVmdRTJ_wallpapers
p3452
aV1SS776p_wallpapers
p3453
aVZxOL7Op_wallpapers
p3454
aVYENfQH6_spaceporn
p3455
aVa6xfQPC_wallpapers
p3456
aVzS7xxVG_wallpapers
p3457
aVKH8aGHA_BotanicalPorn
p3458
aVlQn2Bnb_AbandonedPorn
p3459
aVJVRfRvq_wallpapers
p3460
aVerg8bpu_SkyPorn
p3461
aVQgi8E0m_spaceporn
p3462
aVq78rsrr_SkyPorn
p3463
aVwGgz7kV_wallpapers
p3464
aVtKpPbGU_SkyPorn
p3465
aVODR6aLu_wallpapers
p3466
aVdzcMQeI_MilitaryPorn
p3467
aVmWMpLUs_wallpapers
p3468
aVzVw5q9U_wallpapers
p3469
aV5HZnMHx_wallpapers
p3470
aV9d1xDgJ_AnimalPorn
p3471
aVNACxyYh_wallpapers
p3472
aVlA77jPp_wallpapers
p3473
aV6wvXclZ_wallpapers
p3474
aVone0KUV_wallpapers
p3475
aVOetQxhI_wallpapers
p3476
aVpZiXdZO_SkyPorn
p3477
aVSNTt8gz_wallpapers
p3478
aVsa2PxhE_wallpapers
p3479
aVi96PjJr_waterporn
p3480
aV0Smi9sS_waterporn
p3481
aVa1tUTgM_wallpapers
p3482
aVGzsR4cE_wallpapers
p3483
aVRYlFbPD
p3484
aVnvxQu6k_GameWalls
p3485
aVM5dIKKC_wallpapers
p3486
aVscStULj_wallpapers
p3487
aV9BbOE9t_SkyPorn
p3488
aVmlwdIM7_wallpapers
p3489
aVjLclooR_wallpapers
p3490
aVL18GmFQ_wallpapers
p3491
aV0KxTvUb_wallpapers
p3492
aVne0ZfHD_wallpapers
p3493
aVCgkigto_wallpapers
p3494
aVg1kNBLb_waterporn
p3495
aVhE2Mqdp_wallpapers
p3496
aVrTStkVU_wallpapers
p3497
atp3498
Rp3499
.